(dp1
S'CCT'
p2
(dp3
S'graph'
p4
(dp5
I0
(lp6
I1
aI2
aI3
aI10
asI1
(lp7
I0
aI2
aI3
aI4
asI2
(lp8
I0
aI1
aI3
aI4
asI3
(lp9
I0
aI1
aI2
aI4
asI4
(lp10
I1
aI2
aI3
aI5
asI5
(lp11
I4
aI6
asI6
(lp12
I5
aI7
aI8
aI9
asI7
(lp13
I6
aI8
aI9
aI10
asI8
(lp14
I6
aI7
aI9
aI10
asI9
(lp15
I6
aI7
aI8
aI10
asI10
(lp16
I6
aI8
aI9
aI0
assS'labeled_nodes'
p17
(lp18
I0
aI1
aI6
aI7
asS'action_keys'
p19
(lp20
S'right'
p21
aS'left'
p22
asS'node_values'
p23
(dp24
I0
cnumpy.core.multiarray
scalar
p25
(cnumpy
dtype
p26
(S'f8'
I0
I1
tRp27
(I3
S'<'
NNNI-1
I-1
I0
tbS'S\x98\x93\x9d\xf2?!@'
tRp28
sI1
g25
(g27
S'\x00\x00\x00\x00\x00\x00$@'
tRp29
sI2
g25
(g27
S'\x95<\xa3C"\xd1#@'
tRp30
sI3
g25
(g27
S'\xfbG\xa5\xc5Lt#@'
tRp31
sI4
g25
(g27
S'p\xc1\xc6\x14\xd6\xb9!@'
tRp32
sI5
g25
(g27
S'\xc0\xda <\xc9\xab\x12@'
tRp33
sI6
g25
(g27
S'W\x86\x878\x00/\xf3?'
tRp34
sI7
g25
(g27
S'\x00\x00\x00\x00\x00\x00\x00\x00'
tRp35
sI8
g25
(g27
S'\x82\x84\x9aNQ\\\xf1?'
tRp36
sI9
g25
(g27
S'q,3x\x84\xd9\xf1?'
tRp37
sI10
g25
(g27
S'\xd0AB\xf4\x83\xec\x08@'
tRp38
sssS'MG'
p39
(dp40
S'graph'
p41
(dp42
I0
(lp43
I1
aI2
aI3
aI10
asI1
(lp44
I0
aI2
aI3
aI4
asI2
(lp45
I0
aI1
aI3
aI4
asI3
(lp46
I0
aI1
aI2
aI4
asI4
(lp47
I1
aI2
aI3
aI5
asI5
(lp48
I4
aI6
asI6
(lp49
I5
aI7
aI8
aI9
asI7
(lp50
I6
aI8
aI9
aI10
asI8
(lp51
I6
aI7
aI9
aI10
asI9
(lp52
I6
aI7
aI8
aI10
asI10
(lp53
I6
aI8
aI9
aI0
assS'labeled_nodes'
p54
(lp55
I0
aI1
aI6
aI7
asS'action_keys'
p56
(lp57
S'right'
p58
aS'left'
p59
asS'node_values'
p60
(dp61
I0
g25
(g27
S'S\x98\x93\x9d\xf2?!@'
tRp62
sI1
g25
(g27
S'\x00\x00\x00\x00\x00\x00$@'
tRp63
sI2
g25
(g27
S'\x95<\xa3C"\xd1#@'
tRp64
sI3
g25
(g27
S'\xfbG\xa5\xc5Lt#@'
tRp65
sI4
g25
(g27
S'p\xc1\xc6\x14\xd6\xb9!@'
tRp66
sI5
g25
(g27
S'\xc0\xda <\xc9\xab\x12@'
tRp67
sI6
g25
(g27
S'W\x86\x878\x00/\xf3?'
tRp68
sI7
g25
(g27
S'\x00\x00\x00\x00\x00\x00\x00\x00'
tRp69
sI8
g25
(g27
S'\x82\x84\x9aNQ\\\xf1?'
tRp70
sI9
g25
(g27
S'q,3x\x84\xd9\xf1?'
tRp71
sI10
g25
(g27
S'\xd0AB\xf4\x83\xec\x08@'
tRp72
sssS'HYC'
p73
(dp74
S'graph'
p75
(dp76
I0
(lp77
I1
aI2
aI3
aI10
asI1
(lp78
I0
aI2
aI3
aI4
asI2
(lp79
I0
aI1
aI3
aI4
asI3
(lp80
I0
aI1
aI2
aI4
asI4
(lp81
I1
aI2
aI3
aI5
asI5
(lp82
I4
aI6
asI6
(lp83
I5
aI7
aI8
aI9
asI7
(lp84
I6
aI8
aI9
aI10
asI8
(lp85
I6
aI7
aI9
aI10
asI9
(lp86
I6
aI7
aI8
aI10
asI10
(lp87
I6
aI8
aI9
aI0
assS'labeled_nodes'
p88
(lp89
I0
aI1
aI6
aI7
asS'action_keys'
p90
(lp91
S'left'
p92
aS'right'
p93
asS'node_values'
p94
(dp95
I0
g25
(g27
S'S\x98\x93\x9d\xf2?!@'
tRp96
sI1
g25
(g27
S'\x00\x00\x00\x00\x00\x00$@'
tRp97
sI2
g25
(g27
S'\x95<\xa3C"\xd1#@'
tRp98
sI3
g25
(g27
S'\xfbG\xa5\xc5Lt#@'
tRp99
sI4
g25
(g27
S'p\xc1\xc6\x14\xd6\xb9!@'
tRp100
sI5
g25
(g27
S'\xc0\xda <\xc9\xab\x12@'
tRp101
sI6
g25
(g27
S'W\x86\x878\x00/\xf3?'
tRp102
sI7
g25
(g27
S'\x00\x00\x00\x00\x00\x00\x00\x00'
tRp103
sI8
g25
(g27
S'\x82\x84\x9aNQ\\\xf1?'
tRp104
sI9
g25
(g27
S'q,3x\x84\xd9\xf1?'
tRp105
sI10
g25
(g27
S'\xd0AB\xf4\x83\xec\x08@'
tRp106
sssS'CG'
p107
(dp108
S'graph'
p109
(dp110
I0
(lp111
I1
aI2
aI3
aI10
asI1
(lp112
I0
aI2
aI3
aI4
asI2
(lp113
I0
aI1
aI3
aI4
asI3
(lp114
I0
aI1
aI2
aI4
asI4
(lp115
I1
aI2
aI3
aI5
asI5
(lp116
I4
aI6
asI6
(lp117
I5
aI7
aI8
aI9
asI7
(lp118
I6
aI8
aI9
aI10
asI8
(lp119
I6
aI7
aI9
aI10
asI9
(lp120
I6
aI7
aI8
aI10
asI10
(lp121
I6
aI8
aI9
aI0
assS'labeled_nodes'
p122
(lp123
I0
aI1
aI6
aI7
asS'action_keys'
p124
(lp125
S'left'
p126
aS'right'
p127
asS'node_values'
p128
(dp129
I0
g25
(g27
S'S\x98\x93\x9d\xf2?!@'
tRp130
sI1
g25
(g27
S'\x00\x00\x00\x00\x00\x00$@'
tRp131
sI2
g25
(g27
S'\x95<\xa3C"\xd1#@'
tRp132
sI3
g25
(g27
S'\xfbG\xa5\xc5Lt#@'
tRp133
sI4
g25
(g27
S'p\xc1\xc6\x14\xd6\xb9!@'
tRp134
sI5
g25
(g27
S'\xc0\xda <\xc9\xab\x12@'
tRp135
sI6
g25
(g27
S'W\x86\x878\x00/\xf3?'
tRp136
sI7
g25
(g27
S'\x00\x00\x00\x00\x00\x00\x00\x00'
tRp137
sI8
g25
(g27
S'\x82\x84\x9aNQ\\\xf1?'
tRp138
sI9
g25
(g27
S'q,3x\x84\xd9\xf1?'
tRp139
sI10
g25
(g27
S'\xd0AB\xf4\x83\xec\x08@'
tRp140
sssS'JCH'
p141
(dp142
S'graph'
p143
(dp144
I0
(lp145
I1
aI2
aI3
aI10
asI1
(lp146
I0
aI2
aI3
aI4
asI2
(lp147
I0
aI1
aI3
aI4
asI3
(lp148
I0
aI1
aI2
aI4
asI4
(lp149
I1
aI2
aI3
aI5
asI5
(lp150
I4
aI6
asI6
(lp151
I5
aI7
aI8
aI9
asI7
(lp152
I6
aI8
aI9
aI10
asI8
(lp153
I6
aI7
aI9
aI10
asI9
(lp154
I6
aI7
aI8
aI10
asI10
(lp155
I6
aI8
aI9
aI0
assS'labeled_nodes'
p156
(lp157
I0
aI1
aI6
aI7
asS'action_keys'
p158
(lp159
S'right'
p160
aS'left'
p161
asS'node_values'
p162
(dp163
I0
g25
(g27
S'S\x98\x93\x9d\xf2?!@'
tRp164
sI1
g25
(g27
S'\x00\x00\x00\x00\x00\x00$@'
tRp165
sI2
g25
(g27
S'\x95<\xa3C"\xd1#@'
tRp166
sI3
g25
(g27
S'\xfbG\xa5\xc5Lt#@'
tRp167
sI4
g25
(g27
S'p\xc1\xc6\x14\xd6\xb9!@'
tRp168
sI5
g25
(g27
S'\xc0\xda <\xc9\xab\x12@'
tRp169
sI6
g25
(g27
S'W\x86\x878\x00/\xf3?'
tRp170
sI7
g25
(g27
S'\x00\x00\x00\x00\x00\x00\x00\x00'
tRp171
sI8
g25
(g27
S'\x82\x84\x9aNQ\\\xf1?'
tRp172
sI9
g25
(g27
S'q,3x\x84\xd9\xf1?'
tRp173
sI10
g25
(g27
S'\xd0AB\xf4\x83\xec\x08@'
tRp174
sss.