(dp1
S'GL'
p2
(dp3
S'graph'
p4
(dp5
I0
(lp6
I1
aI2
aI3
aI14
asI1
(lp7
I0
aI2
aI3
aI4
asI2
(lp8
I0
aI1
aI3
aI4
asI3
(lp9
I0
aI1
aI2
aI4
asI4
(lp10
I1
aI2
aI3
aI5
asI5
(lp11
I4
aI6
aI7
aI8
asI6
(lp12
I5
aI7
aI8
aI9
asI7
(lp13
I5
aI6
aI8
aI9
asI8
(lp14
I5
aI6
aI7
aI9
asI9
(lp15
I6
aI7
aI8
aI10
asI10
(lp16
I9
aI11
aI12
aI13
asI11
(lp17
I10
aI12
aI13
aI14
asI12
(lp18
I10
aI11
aI13
aI14
asI13
(lp19
I10
aI11
aI12
aI14
asI14
(lp20
I11
aI12
aI13
aI0
assS'labeled_nodes'
p21
(lp22
I0
aI1
aI10
aI11
asS'action_keys'
p23
(lp24
S'right'
p25
aS'left'
p26
asS'node_values'
p27
(dp28
I0
cnumpy.core.multiarray
scalar
p29
(cnumpy
dtype
p30
(S'f8'
I0
I1
tRp31
(I3
S'<'
NNNI-1
I-1
I0
tbS'\xbe\x93\x02=n|\x1f@'
tRp32
sI1
g29
(g31
S'\x00\x00\x00\x00\x00\x00$@'
tRp33
sI2
g29
(g31
S'\xb1\xe0\xae\x07\xf3`#@'
tRp34
sI3
g29
(g31
S'\xf8\xdf>\xfeR\xfa!@'
tRp35
sI4
g29
(g31
S"\x18'\xd4\xef\xebZ!@"
tRp36
sI5
g29
(g31
S'>\x98\xf6\x1c\x11\x85\x17@'
tRp37
sI6
g29
(g31
S'\x02\xd4u\xdf\x19\xb7\x14@'
tRp38
sI7
g29
(g31
S'=IU\x08D\xb8\x14@'
tRp39
sI8
g29
(g31
S'\xe5\xf0\xc1B\xa8\xb7\x14@'
tRp40
sI9
g29
(g31
S'p\xe7\x7f~2\xc6\x11@'
tRp41
sI10
g29
(g31
S'W\x8dg \xbc\x15\xf7?'
tRp42
sI11
g29
(g31
S'\n\x84\xb7\xd3b+\xc1?'
tRp43
sI12
g29
(g31
S'\x00\x00\x00\x00\x00\x00\x00\x00'
tRp44
sI13
g29
(g31
S'\xa4\xee\xfc\xfa\xf3\xa9\xf2?'
tRp45
sI14
g29
(g31
S'\xfd\xbe\x1a\xaf\xdf\xc8\x01@'
tRp46
sss.