(dp1
S'test'
p2
(dp3
S'graph'
p4
(dp5
I0
(lp6
I1
aI2
aI3
aI14
asI1
(lp7
I0
aI2
aI3
aI4
asI2
(lp8
I0
aI1
aI3
aI4
asI3
(lp9
I0
aI1
aI2
aI4
asI4
(lp10
I1
aI2
aI3
aI5
asI5
(lp11
I4
aI6
aI7
aI8
asI6
(lp12
I5
aI7
aI8
aI9
asI7
(lp13
I5
aI6
aI8
aI9
asI8
(lp14
I5
aI6
aI7
aI9
asI9
(lp15
I6
aI7
aI8
aI10
asI10
(lp16
I9
aI11
aI12
aI13
asI11
(lp17
I10
aI12
aI13
aI14
asI12
(lp18
I10
aI11
aI13
aI14
asI13
(lp19
I10
aI11
aI12
aI14
asI14
(lp20
I11
aI12
aI13
aI0
assS'labeled_nodes'
p21
(lp22
(I11
F4.2000000000000002
tp23
a(I0
F8.3000000000000007
tp24
a(I1
I7
tp25
a(I10
F3.5
tp26
asS'action_keys'
p27
(lp28
S'left'
p29
aS'right'
p30
ass.