(dp1
S'JCH'
p2
(dp3
S'graph'
p4
(dp5
I0
(lp6
I1
aI2
aI3
aI10
asI1
(lp7
I0
aI2
aI3
aI4
asI2
(lp8
I0
aI1
aI3
aI4
asI3
(lp9
I0
aI1
aI2
aI4
asI4
(lp10
I1
aI2
aI3
aI5
asI5
(lp11
I4
aI6
asI6
(lp12
I5
aI7
aI8
aI9
asI7
(lp13
I6
aI8
aI9
aI10
asI8
(lp14
I6
aI7
aI9
aI10
asI9
(lp15
I6
aI7
aI8
aI10
asI10
(lp16
I6
aI8
aI9
aI0
assS'labeled_nodes'
p17
(lp18
I0
aI1
aI6
aI7
asS'action_keys'
p19
(lp20
S'right'
p21
aS'left'
p22
asS'node_values'
p23
(dp24
I0
cnumpy.core.multiarray
scalar
p25
(cnumpy
dtype
p26
(S'f8'
I0
I1
tRp27
(I3
S'<'
NNNI-1
I-1
I0
tbS'S\x98\x93\x9d\xf2?!@'
tRp28
sI1
g25
(g27
S'\x00\x00\x00\x00\x00\x00$@'
tRp29
sI2
g25
(g27
S'\x95<\xa3C"\xd1#@'
tRp30
sI3
g25
(g27
S'\xfbG\xa5\xc5Lt#@'
tRp31
sI4
g25
(g27
S'p\xc1\xc6\x14\xd6\xb9!@'
tRp32
sI5
g25
(g27
S'\xc0\xda <\xc9\xab\x12@'
tRp33
sI6
g25
(g27
S'W\x86\x878\x00/\xf3?'
tRp34
sI7
g25
(g27
S'\x00\x00\x00\x00\x00\x00\x00\x00'
tRp35
sI8
g25
(g27
S'\x82\x84\x9aNQ\\\xf1?'
tRp36
sI9
g25
(g27
S'q,3x\x84\xd9\xf1?'
tRp37
sI10
g25
(g27
S'\xd0AB\xf4\x83\xec\x08@'
tRp38
sss.