(dp1
S'ME'
p2
(dp3
S'graph'
p4
(dp5
I0
(lp6
I1
aI2
aI3
aI10
asI1
(lp7
I0
aI2
aI3
aI4
asI2
(lp8
I0
aI1
aI3
aI4
asI3
(lp9
I0
aI1
aI2
aI4
asI4
(lp10
I1
aI2
aI3
aI5
asI5
(lp11
I4
aI6
asI6
(lp12
I5
aI7
aI8
aI9
asI7
(lp13
I6
aI8
aI9
aI10
asI8
(lp14
I6
aI7
aI9
aI10
asI9
(lp15
I6
aI7
aI8
aI10
asI10
(lp16
I6
aI8
aI9
aI0
assS'labeled_nodes'
p17
(lp18
I0
aI1
aI6
aI7
asS'action_keys'
p19
(lp20
S'right'
p21
aS'left'
p22
asS'node_values'
p23
(dp24
I0
cnumpy.core.multiarray
scalar
p25
(cnumpy
dtype
p26
(S'f8'
I0
I1
tRp27
(I3
S'<'
NNNI-1
I-1
I0
tbS'S\x98\x93\x9d\xf2?!@'
tRp28
sI1
g25
(g27
S'\x00\x00\x00\x00\x00\x00$@'
tRp29
sI2
g25
(g27
S'\x95<\xa3C"\xd1#@'
tRp30
sI3
g25
(g27
S'\xfbG\xa5\xc5Lt#@'
tRp31
sI4
g25
(g27
S'p\xc1\xc6\x14\xd6\xb9!@'
tRp32
sI5
g25
(g27
S'\xc0\xda <\xc9\xab\x12@'
tRp33
sI6
g25
(g27
S'W\x86\x878\x00/\xf3?'
tRp34
sI7
g25
(g27
S'\x00\x00\x00\x00\x00\x00\x00\x00'
tRp35
sI8
g25
(g27
S'\x82\x84\x9aNQ\\\xf1?'
tRp36
sI9
g25
(g27
S'q,3x\x84\xd9\xf1?'
tRp37
sI10
g25
(g27
S'\xd0AB\xf4\x83\xec\x08@'
tRp38
sssS'MG'
p39
(dp40
S'graph'
p41
(dp42
I0
(lp43
I1
aI2
aI3
aI10
asI1
(lp44
I0
aI2
aI3
aI4
asI2
(lp45
I0
aI1
aI3
aI4
asI3
(lp46
I0
aI1
aI2
aI4
asI4
(lp47
I1
aI2
aI3
aI5
asI5
(lp48
I4
aI6
asI6
(lp49
I5
aI7
aI8
aI9
asI7
(lp50
I6
aI8
aI9
aI10
asI8
(lp51
I6
aI7
aI9
aI10
asI9
(lp52
I6
aI7
aI8
aI10
asI10
(lp53
I6
aI8
aI9
aI0
assS'labeled_nodes'
p54
(lp55
I0
aI1
aI6
aI7
asS'action_keys'
p56
(lp57
S'right'
p58
aS'left'
p59
asS'node_values'
p60
(dp61
I0
g25
(g27
S'S\x98\x93\x9d\xf2?!@'
tRp62
sI1
g25
(g27
S'\x00\x00\x00\x00\x00\x00$@'
tRp63
sI2
g25
(g27
S'\x95<\xa3C"\xd1#@'
tRp64
sI3
g25
(g27
S'\xfbG\xa5\xc5Lt#@'
tRp65
sI4
g25
(g27
S'p\xc1\xc6\x14\xd6\xb9!@'
tRp66
sI5
g25
(g27
S'\xc0\xda <\xc9\xab\x12@'
tRp67
sI6
g25
(g27
S'W\x86\x878\x00/\xf3?'
tRp68
sI7
g25
(g27
S'\x00\x00\x00\x00\x00\x00\x00\x00'
tRp69
sI8
g25
(g27
S'\x82\x84\x9aNQ\\\xf1?'
tRp70
sI9
g25
(g27
S'q,3x\x84\xd9\xf1?'
tRp71
sI10
g25
(g27
S'\xd0AB\xf4\x83\xec\x08@'
tRp72
sssS'HYC'
p73
(dp74
S'graph'
p75
(dp76
I0
(lp77
I1
aI2
aI3
aI10
asI1
(lp78
I0
aI2
aI3
aI4
asI2
(lp79
I0
aI1
aI3
aI4
asI3
(lp80
I0
aI1
aI2
aI4
asI4
(lp81
I1
aI2
aI3
aI5
asI5
(lp82
I4
aI6
asI6
(lp83
I5
aI7
aI8
aI9
asI7
(lp84
I6
aI8
aI9
aI10
asI8
(lp85
I6
aI7
aI9
aI10
asI9
(lp86
I6
aI7
aI8
aI10
asI10
(lp87
I6
aI8
aI9
aI0
assS'labeled_nodes'
p88
(lp89
I0
aI1
aI6
aI7
asS'action_keys'
p90
(lp91
S'left'
p92
aS'right'
p93
asS'node_values'
p94
(dp95
I0
g25
(g27
S'S\x98\x93\x9d\xf2?!@'
tRp96
sI1
g25
(g27
S'\x00\x00\x00\x00\x00\x00$@'
tRp97
sI2
g25
(g27
S'\x95<\xa3C"\xd1#@'
tRp98
sI3
g25
(g27
S'\xfbG\xa5\xc5Lt#@'
tRp99
sI4
g25
(g27
S'p\xc1\xc6\x14\xd6\xb9!@'
tRp100
sI5
g25
(g27
S'\xc0\xda <\xc9\xab\x12@'
tRp101
sI6
g25
(g27
S'W\x86\x878\x00/\xf3?'
tRp102
sI7
g25
(g27
S'\x00\x00\x00\x00\x00\x00\x00\x00'
tRp103
sI8
g25
(g27
S'\x82\x84\x9aNQ\\\xf1?'
tRp104
sI9
g25
(g27
S'q,3x\x84\xd9\xf1?'
tRp105
sI10
g25
(g27
S'\xd0AB\xf4\x83\xec\x08@'
tRp106
sssS'TW'
p107
(dp108
S'graph'
p109
(dp110
I0
(lp111
I1
aI2
aI3
aI10
asI1
(lp112
I0
aI2
aI3
aI4
asI2
(lp113
I0
aI1
aI3
aI4
asI3
(lp114
I0
aI1
aI2
aI4
asI4
(lp115
I1
aI2
aI3
aI5
asI5
(lp116
I4
aI6
asI6
(lp117
I5
aI7
aI8
aI9
asI7
(lp118
I6
aI8
aI9
aI10
asI8
(lp119
I6
aI7
aI9
aI10
asI9
(lp120
I6
aI7
aI8
aI10
asI10
(lp121
I6
aI8
aI9
aI0
assS'labeled_nodes'
p122
(lp123
I0
aI1
aI6
aI7
asS'action_keys'
p124
(lp125
S'left'
p126
aS'right'
p127
asS'node_values'
p128
(dp129
I0
g25
(g27
S'S\x98\x93\x9d\xf2?!@'
tRp130
sI1
g25
(g27
S'\x00\x00\x00\x00\x00\x00$@'
tRp131
sI2
g25
(g27
S'\x95<\xa3C"\xd1#@'
tRp132
sI3
g25
(g27
S'\xfbG\xa5\xc5Lt#@'
tRp133
sI4
g25
(g27
S'p\xc1\xc6\x14\xd6\xb9!@'
tRp134
sI5
g25
(g27
S'\xc0\xda <\xc9\xab\x12@'
tRp135
sI6
g25
(g27
S'W\x86\x878\x00/\xf3?'
tRp136
sI7
g25
(g27
S'\x00\x00\x00\x00\x00\x00\x00\x00'
tRp137
sI8
g25
(g27
S'\x82\x84\x9aNQ\\\xf1?'
tRp138
sI9
g25
(g27
S'q,3x\x84\xd9\xf1?'
tRp139
sI10
g25
(g27
S'\xd0AB\xf4\x83\xec\x08@'
tRp140
sssS'YL'
p141
(dp142
S'graph'
p143
(dp144
I0
(lp145
I1
aI2
aI3
aI10
asI1
(lp146
I0
aI2
aI3
aI4
asI2
(lp147
I0
aI1
aI3
aI4
asI3
(lp148
I0
aI1
aI2
aI4
asI4
(lp149
I1
aI2
aI3
aI5
asI5
(lp150
I4
aI6
asI6
(lp151
I5
aI7
aI8
aI9
asI7
(lp152
I6
aI8
aI9
aI10
asI8
(lp153
I6
aI7
aI9
aI10
asI9
(lp154
I6
aI7
aI8
aI10
asI10
(lp155
I6
aI8
aI9
aI0
assS'labeled_nodes'
p156
(lp157
I0
aI1
aI6
aI7
asS'action_keys'
p158
(lp159
S'right'
p160
aS'left'
p161
asS'node_values'
p162
(dp163
I0
g25
(g27
S'S\x98\x93\x9d\xf2?!@'
tRp164
sI1
g25
(g27
S'\x00\x00\x00\x00\x00\x00$@'
tRp165
sI2
g25
(g27
S'\x95<\xa3C"\xd1#@'
tRp166
sI3
g25
(g27
S'\xfbG\xa5\xc5Lt#@'
tRp167
sI4
g25
(g27
S'p\xc1\xc6\x14\xd6\xb9!@'
tRp168
sI5
g25
(g27
S'\xc0\xda <\xc9\xab\x12@'
tRp169
sI6
g25
(g27
S'W\x86\x878\x00/\xf3?'
tRp170
sI7
g25
(g27
S'\x00\x00\x00\x00\x00\x00\x00\x00'
tRp171
sI8
g25
(g27
S'\x82\x84\x9aNQ\\\xf1?'
tRp172
sI9
g25
(g27
S'q,3x\x84\xd9\xf1?'
tRp173
sI10
g25
(g27
S'\xd0AB\xf4\x83\xec\x08@'
tRp174
sssS'CCT'
p175
(dp176
S'graph'
p177
(dp178
I0
(lp179
I1
aI2
aI3
aI10
asI1
(lp180
I0
aI2
aI3
aI4
asI2
(lp181
I0
aI1
aI3
aI4
asI3
(lp182
I0
aI1
aI2
aI4
asI4
(lp183
I1
aI2
aI3
aI5
asI5
(lp184
I4
aI6
asI6
(lp185
I5
aI7
aI8
aI9
asI7
(lp186
I6
aI8
aI9
aI10
asI8
(lp187
I6
aI7
aI9
aI10
asI9
(lp188
I6
aI7
aI8
aI10
asI10
(lp189
I6
aI8
aI9
aI0
assS'labeled_nodes'
p190
(lp191
I0
aI1
aI6
aI7
asS'action_keys'
p192
(lp193
S'right'
p194
aS'left'
p195
asS'node_values'
p196
(dp197
I0
g25
(g27
S'S\x98\x93\x9d\xf2?!@'
tRp198
sI1
g25
(g27
S'\x00\x00\x00\x00\x00\x00$@'
tRp199
sI2
g25
(g27
S'\x95<\xa3C"\xd1#@'
tRp200
sI3
g25
(g27
S'\xfbG\xa5\xc5Lt#@'
tRp201
sI4
g25
(g27
S'p\xc1\xc6\x14\xd6\xb9!@'
tRp202
sI5
g25
(g27
S'\xc0\xda <\xc9\xab\x12@'
tRp203
sI6
g25
(g27
S'W\x86\x878\x00/\xf3?'
tRp204
sI7
g25
(g27
S'\x00\x00\x00\x00\x00\x00\x00\x00'
tRp205
sI8
g25
(g27
S'\x82\x84\x9aNQ\\\xf1?'
tRp206
sI9
g25
(g27
S'q,3x\x84\xd9\xf1?'
tRp207
sI10
g25
(g27
S'\xd0AB\xf4\x83\xec\x08@'
tRp208
sssS'ZG'
p209
(dp210
S'graph'
p211
(dp212
I0
(lp213
I1
aI2
aI3
aI10
asI1
(lp214
I0
aI2
aI3
aI4
asI2
(lp215
I0
aI1
aI3
aI4
asI3
(lp216
I0
aI1
aI2
aI4
asI4
(lp217
I1
aI2
aI3
aI5
asI5
(lp218
I4
aI6
asI6
(lp219
I5
aI7
aI8
aI9
asI7
(lp220
I6
aI8
aI9
aI10
asI8
(lp221
I6
aI7
aI9
aI10
asI9
(lp222
I6
aI7
aI8
aI10
asI10
(lp223
I6
aI8
aI9
aI0
assS'labeled_nodes'
p224
(lp225
I0
aI1
aI6
aI7
asS'action_keys'
p226
(lp227
S'right'
p228
aS'left'
p229
asS'node_values'
p230
(dp231
I0
g25
(g27
S'S\x98\x93\x9d\xf2?!@'
tRp232
sI1
g25
(g27
S'\x00\x00\x00\x00\x00\x00$@'
tRp233
sI2
g25
(g27
S'\x95<\xa3C"\xd1#@'
tRp234
sI3
g25
(g27
S'\xfbG\xa5\xc5Lt#@'
tRp235
sI4
g25
(g27
S'p\xc1\xc6\x14\xd6\xb9!@'
tRp236
sI5
g25
(g27
S'\xc0\xda <\xc9\xab\x12@'
tRp237
sI6
g25
(g27
S'W\x86\x878\x00/\xf3?'
tRp238
sI7
g25
(g27
S'\x00\x00\x00\x00\x00\x00\x00\x00'
tRp239
sI8
g25
(g27
S'\x82\x84\x9aNQ\\\xf1?'
tRp240
sI9
g25
(g27
S'q,3x\x84\xd9\xf1?'
tRp241
sI10
g25
(g27
S'\xd0AB\xf4\x83\xec\x08@'
tRp242
sssS'CG'
p243
(dp244
S'graph'
p245
(dp246
I0
(lp247
I1
aI2
aI3
aI10
asI1
(lp248
I0
aI2
aI3
aI4
asI2
(lp249
I0
aI1
aI3
aI4
asI3
(lp250
I0
aI1
aI2
aI4
asI4
(lp251
I1
aI2
aI3
aI5
asI5
(lp252
I4
aI6
asI6
(lp253
I5
aI7
aI8
aI9
asI7
(lp254
I6
aI8
aI9
aI10
asI8
(lp255
I6
aI7
aI9
aI10
asI9
(lp256
I6
aI7
aI8
aI10
asI10
(lp257
I6
aI8
aI9
aI0
assS'labeled_nodes'
p258
(lp259
I0
aI1
aI6
aI7
asS'action_keys'
p260
(lp261
S'left'
p262
aS'right'
p263
asS'node_values'
p264
(dp265
I0
g25
(g27
S'S\x98\x93\x9d\xf2?!@'
tRp266
sI1
g25
(g27
S'\x00\x00\x00\x00\x00\x00$@'
tRp267
sI2
g25
(g27
S'\x95<\xa3C"\xd1#@'
tRp268
sI3
g25
(g27
S'\xfbG\xa5\xc5Lt#@'
tRp269
sI4
g25
(g27
S'p\xc1\xc6\x14\xd6\xb9!@'
tRp270
sI5
g25
(g27
S'\xc0\xda <\xc9\xab\x12@'
tRp271
sI6
g25
(g27
S'W\x86\x878\x00/\xf3?'
tRp272
sI7
g25
(g27
S'\x00\x00\x00\x00\x00\x00\x00\x00'
tRp273
sI8
g25
(g27
S'\x82\x84\x9aNQ\\\xf1?'
tRp274
sI9
g25
(g27
S'q,3x\x84\xd9\xf1?'
tRp275
sI10
g25
(g27
S'\xd0AB\xf4\x83\xec\x08@'
tRp276
sssS'WSL'
p277
(dp278
S'graph'
p279
(dp280
I0
(lp281
I1
aI2
aI3
aI10
asI1
(lp282
I0
aI2
aI3
aI4
asI2
(lp283
I0
aI1
aI3
aI4
asI3
(lp284
I0
aI1
aI2
aI4
asI4
(lp285
I1
aI2
aI3
aI5
asI5
(lp286
I4
aI6
asI6
(lp287
I5
aI7
aI8
aI9
asI7
(lp288
I6
aI8
aI9
aI10
asI8
(lp289
I6
aI7
aI9
aI10
asI9
(lp290
I6
aI7
aI8
aI10
asI10
(lp291
I6
aI8
aI9
aI0
assS'labeled_nodes'
p292
(lp293
I0
aI1
aI6
aI7
asS'node_values'
p294
(dp295
I0
g25
(g27
S'S\x98\x93\x9d\xf2?!@'
tRp296
sI1
g25
(g27
S'\x00\x00\x00\x00\x00\x00$@'
tRp297
sI2
g25
(g27
S'\x95<\xa3C"\xd1#@'
tRp298
sI3
g25
(g27
S'\xfbG\xa5\xc5Lt#@'
tRp299
sI4
g25
(g27
S'p\xc1\xc6\x14\xd6\xb9!@'
tRp300
sI5
g25
(g27
S'\xc0\xda <\xc9\xab\x12@'
tRp301
sI6
g25
(g27
S'W\x86\x878\x00/\xf3?'
tRp302
sI7
g25
(g27
S'\x00\x00\x00\x00\x00\x00\x00\x00'
tRp303
sI8
g25
(g27
S'\x82\x84\x9aNQ\\\xf1?'
tRp304
sI9
g25
(g27
S'q,3x\x84\xd9\xf1?'
tRp305
sI10
g25
(g27
S'\xd0AB\xf4\x83\xec\x08@'
tRp306
ssS'action_keys'
p307
(lp308
S'left'
p309
aS'right'
p310
assS'KL'
p311
(dp312
S'graph'
p313
(dp314
I0
(lp315
I1
aI2
aI3
aI10
asI1
(lp316
I0
aI2
aI3
aI4
asI2
(lp317
I0
aI1
aI3
aI4
asI3
(lp318
I0
aI1
aI2
aI4
asI4
(lp319
I1
aI2
aI3
aI5
asI5
(lp320
I4
aI6
asI6
(lp321
I5
aI7
aI8
aI9
asI7
(lp322
I6
aI8
aI9
aI10
asI8
(lp323
I6
aI7
aI9
aI10
asI9
(lp324
I6
aI7
aI8
aI10
asI10
(lp325
I6
aI8
aI9
aI0
assS'labeled_nodes'
p326
(lp327
I0
aI1
aI6
aI7
asS'action_keys'
p328
(lp329
S'left'
p330
aS'right'
p331
asS'node_values'
p332
(dp333
I0
g25
(g27
S'S\x98\x93\x9d\xf2?!@'
tRp334
sI1
g25
(g27
S'\x00\x00\x00\x00\x00\x00$@'
tRp335
sI2
g25
(g27
S'\x95<\xa3C"\xd1#@'
tRp336
sI3
g25
(g27
S'\xfbG\xa5\xc5Lt#@'
tRp337
sI4
g25
(g27
S'p\xc1\xc6\x14\xd6\xb9!@'
tRp338
sI5
g25
(g27
S'\xc0\xda <\xc9\xab\x12@'
tRp339
sI6
g25
(g27
S'W\x86\x878\x00/\xf3?'
tRp340
sI7
g25
(g27
S'\x00\x00\x00\x00\x00\x00\x00\x00'
tRp341
sI8
g25
(g27
S'\x82\x84\x9aNQ\\\xf1?'
tRp342
sI9
g25
(g27
S'q,3x\x84\xd9\xf1?'
tRp343
sI10
g25
(g27
S'\xd0AB\xf4\x83\xec\x08@'
tRp344
sssS'LV'
p345
(dp346
S'graph'
p347
(dp348
I0
(lp349
I1
aI2
aI3
aI10
asI1
(lp350
I0
aI2
aI3
aI4
asI2
(lp351
I0
aI1
aI3
aI4
asI3
(lp352
I0
aI1
aI2
aI4
asI4
(lp353
I1
aI2
aI3
aI5
asI5
(lp354
I4
aI6
asI6
(lp355
I5
aI7
aI8
aI9
asI7
(lp356
I6
aI8
aI9
aI10
asI8
(lp357
I6
aI7
aI9
aI10
asI9
(lp358
I6
aI7
aI8
aI10
asI10
(lp359
I6
aI8
aI9
aI0
assS'labeled_nodes'
p360
(lp361
I0
aI1
aI6
aI7
asS'action_keys'
p362
(lp363
S'left'
p364
aS'right'
p365
asS'node_values'
p366
(dp367
I0
g25
(g27
S'S\x98\x93\x9d\xf2?!@'
tRp368
sI1
g25
(g27
S'\x00\x00\x00\x00\x00\x00$@'
tRp369
sI2
g25
(g27
S'\x95<\xa3C"\xd1#@'
tRp370
sI3
g25
(g27
S'\xfbG\xa5\xc5Lt#@'
tRp371
sI4
g25
(g27
S'p\xc1\xc6\x14\xd6\xb9!@'
tRp372
sI5
g25
(g27
S'\xc0\xda <\xc9\xab\x12@'
tRp373
sI6
g25
(g27
S'W\x86\x878\x00/\xf3?'
tRp374
sI7
g25
(g27
S'\x00\x00\x00\x00\x00\x00\x00\x00'
tRp375
sI8
g25
(g27
S'\x82\x84\x9aNQ\\\xf1?'
tRp376
sI9
g25
(g27
S'q,3x\x84\xd9\xf1?'
tRp377
sI10
g25
(g27
S'\xd0AB\xf4\x83\xec\x08@'
tRp378
sssS'JTL'
p379
(dp380
S'graph'
p381
(dp382
I0
(lp383
I1
aI2
aI3
aI10
asI1
(lp384
I0
aI2
aI3
aI4
asI2
(lp385
I0
aI1
aI3
aI4
asI3
(lp386
I0
aI1
aI2
aI4
asI4
(lp387
I1
aI2
aI3
aI5
asI5
(lp388
I4
aI6
asI6
(lp389
I5
aI7
aI8
aI9
asI7
(lp390
I6
aI8
aI9
aI10
asI8
(lp391
I6
aI7
aI9
aI10
asI9
(lp392
I6
aI7
aI8
aI10
asI10
(lp393
I6
aI8
aI9
aI0
assS'labeled_nodes'
p394
(lp395
I0
aI1
aI6
aI7
asS'action_keys'
p396
(lp397
S'left'
p398
aS'right'
p399
asS'node_values'
p400
(dp401
I0
g25
(g27
S'S\x98\x93\x9d\xf2?!@'
tRp402
sI1
g25
(g27
S'\x00\x00\x00\x00\x00\x00$@'
tRp403
sI2
g25
(g27
S'\x95<\xa3C"\xd1#@'
tRp404
sI3
g25
(g27
S'\xfbG\xa5\xc5Lt#@'
tRp405
sI4
g25
(g27
S'p\xc1\xc6\x14\xd6\xb9!@'
tRp406
sI5
g25
(g27
S'\xc0\xda <\xc9\xab\x12@'
tRp407
sI6
g25
(g27
S'W\x86\x878\x00/\xf3?'
tRp408
sI7
g25
(g27
S'\x00\x00\x00\x00\x00\x00\x00\x00'
tRp409
sI8
g25
(g27
S'\x82\x84\x9aNQ\\\xf1?'
tRp410
sI9
g25
(g27
S'q,3x\x84\xd9\xf1?'
tRp411
sI10
g25
(g27
S'\xd0AB\xf4\x83\xec\x08@'
tRp412
sssS'AB'
p413
(dp414
S'graph'
p415
(dp416
I0
(lp417
I1
aI2
aI3
aI10
asI1
(lp418
I0
aI2
aI3
aI4
asI2
(lp419
I0
aI1
aI3
aI4
asI3
(lp420
I0
aI1
aI2
aI4
asI4
(lp421
I1
aI2
aI3
aI5
asI5
(lp422
I4
aI6
asI6
(lp423
I5
aI7
aI8
aI9
asI7
(lp424
I6
aI8
aI9
aI10
asI8
(lp425
I6
aI7
aI9
aI10
asI9
(lp426
I6
aI7
aI8
aI10
asI10
(lp427
I6
aI8
aI9
aI0
assS'labeled_nodes'
p428
(lp429
I0
aI1
aI6
aI7
asS'action_keys'
p430
(lp431
S'right'
p432
aS'left'
p433
asS'node_values'
p434
(dp435
I0
g25
(g27
S'S\x98\x93\x9d\xf2?!@'
tRp436
sI1
g25
(g27
S'\x00\x00\x00\x00\x00\x00$@'
tRp437
sI2
g25
(g27
S'\x95<\xa3C"\xd1#@'
tRp438
sI3
g25
(g27
S'\xfbG\xa5\xc5Lt#@'
tRp439
sI4
g25
(g27
S'p\xc1\xc6\x14\xd6\xb9!@'
tRp440
sI5
g25
(g27
S'\xc0\xda <\xc9\xab\x12@'
tRp441
sI6
g25
(g27
S'W\x86\x878\x00/\xf3?'
tRp442
sI7
g25
(g27
S'\x00\x00\x00\x00\x00\x00\x00\x00'
tRp443
sI8
g25
(g27
S'\x82\x84\x9aNQ\\\xf1?'
tRp444
sI9
g25
(g27
S'q,3x\x84\xd9\xf1?'
tRp445
sI10
g25
(g27
S'\xd0AB\xf4\x83\xec\x08@'
tRp446
sssS'XXG'
p447
(dp448
S'graph'
p449
(dp450
I0
(lp451
I1
aI2
aI3
aI10
asI1
(lp452
I0
aI2
aI3
aI4
asI2
(lp453
I0
aI1
aI3
aI4
asI3
(lp454
I0
aI1
aI2
aI4
asI4
(lp455
I1
aI2
aI3
aI5
asI5
(lp456
I4
aI6
asI6
(lp457
I5
aI7
aI8
aI9
asI7
(lp458
I6
aI8
aI9
aI10
asI8
(lp459
I6
aI7
aI9
aI10
asI9
(lp460
I6
aI7
aI8
aI10
asI10
(lp461
I6
aI8
aI9
aI0
assS'labeled_nodes'
p462
(lp463
I0
aI1
aI6
aI7
asS'action_keys'
p464
(lp465
S'left'
p466
aS'right'
p467
asS'node_values'
p468
(dp469
I0
g25
(g27
S'S\x98\x93\x9d\xf2?!@'
tRp470
sI1
g25
(g27
S'\x00\x00\x00\x00\x00\x00$@'
tRp471
sI2
g25
(g27
S'\x95<\xa3C"\xd1#@'
tRp472
sI3
g25
(g27
S'\xfbG\xa5\xc5Lt#@'
tRp473
sI4
g25
(g27
S'p\xc1\xc6\x14\xd6\xb9!@'
tRp474
sI5
g25
(g27
S'\xc0\xda <\xc9\xab\x12@'
tRp475
sI6
g25
(g27
S'W\x86\x878\x00/\xf3?'
tRp476
sI7
g25
(g27
S'\x00\x00\x00\x00\x00\x00\x00\x00'
tRp477
sI8
g25
(g27
S'\x82\x84\x9aNQ\\\xf1?'
tRp478
sI9
g25
(g27
S'q,3x\x84\xd9\xf1?'
tRp479
sI10
g25
(g27
S'\xd0AB\xf4\x83\xec\x08@'
tRp480
sssS'BS'
p481
(dp482
S'graph'
p483
(dp484
I0
(lp485
I1
aI2
aI3
aI10
asI1
(lp486
I0
aI2
aI3
aI4
asI2
(lp487
I0
aI1
aI3
aI4
asI3
(lp488
I0
aI1
aI2
aI4
asI4
(lp489
I1
aI2
aI3
aI5
asI5
(lp490
I4
aI6
asI6
(lp491
I5
aI7
aI8
aI9
asI7
(lp492
I6
aI8
aI9
aI10
asI8
(lp493
I6
aI7
aI9
aI10
asI9
(lp494
I6
aI7
aI8
aI10
asI10
(lp495
I6
aI8
aI9
aI0
assS'labeled_nodes'
p496
(lp497
I0
aI1
aI6
aI7
asS'action_keys'
p498
(lp499
S'left'
p500
aS'right'
p501
asS'node_values'
p502
(dp503
I0
g25
(g27
S'S\x98\x93\x9d\xf2?!@'
tRp504
sI1
g25
(g27
S'\x00\x00\x00\x00\x00\x00$@'
tRp505
sI2
g25
(g27
S'\x95<\xa3C"\xd1#@'
tRp506
sI3
g25
(g27
S'\xfbG\xa5\xc5Lt#@'
tRp507
sI4
g25
(g27
S'p\xc1\xc6\x14\xd6\xb9!@'
tRp508
sI5
g25
(g27
S'\xc0\xda <\xc9\xab\x12@'
tRp509
sI6
g25
(g27
S'W\x86\x878\x00/\xf3?'
tRp510
sI7
g25
(g27
S'\x00\x00\x00\x00\x00\x00\x00\x00'
tRp511
sI8
g25
(g27
S'\x82\x84\x9aNQ\\\xf1?'
tRp512
sI9
g25
(g27
S'q,3x\x84\xd9\xf1?'
tRp513
sI10
g25
(g27
S'\xd0AB\xf4\x83\xec\x08@'
tRp514
sssS'PK'
p515
(dp516
S'graph'
p517
(dp518
I0
(lp519
I1
aI2
aI3
aI10
asI1
(lp520
I0
aI2
aI3
aI4
asI2
(lp521
I0
aI1
aI3
aI4
asI3
(lp522
I0
aI1
aI2
aI4
asI4
(lp523
I1
aI2
aI3
aI5
asI5
(lp524
I4
aI6
asI6
(lp525
I5
aI7
aI8
aI9
asI7
(lp526
I6
aI8
aI9
aI10
asI8
(lp527
I6
aI7
aI9
aI10
asI9
(lp528
I6
aI7
aI8
aI10
asI10
(lp529
I6
aI8
aI9
aI0
assS'labeled_nodes'
p530
(lp531
I0
aI1
aI6
aI7
asS'action_keys'
p532
(lp533
S'left'
p534
aS'right'
p535
asS'node_values'
p536
(dp537
I0
g25
(g27
S'S\x98\x93\x9d\xf2?!@'
tRp538
sI1
g25
(g27
S'\x00\x00\x00\x00\x00\x00$@'
tRp539
sI2
g25
(g27
S'\x95<\xa3C"\xd1#@'
tRp540
sI3
g25
(g27
S'\xfbG\xa5\xc5Lt#@'
tRp541
sI4
g25
(g27
S'p\xc1\xc6\x14\xd6\xb9!@'
tRp542
sI5
g25
(g27
S'\xc0\xda <\xc9\xab\x12@'
tRp543
sI6
g25
(g27
S'W\x86\x878\x00/\xf3?'
tRp544
sI7
g25
(g27
S'\x00\x00\x00\x00\x00\x00\x00\x00'
tRp545
sI8
g25
(g27
S'\x82\x84\x9aNQ\\\xf1?'
tRp546
sI9
g25
(g27
S'q,3x\x84\xd9\xf1?'
tRp547
sI10
g25
(g27
S'\xd0AB\xf4\x83\xec\x08@'
tRp548
sssS'JCH'
p549
(dp550
S'graph'
p551
(dp552
I0
(lp553
I1
aI2
aI3
aI10
asI1
(lp554
I0
aI2
aI3
aI4
asI2
(lp555
I0
aI1
aI3
aI4
asI3
(lp556
I0
aI1
aI2
aI4
asI4
(lp557
I1
aI2
aI3
aI5
asI5
(lp558
I4
aI6
asI6
(lp559
I5
aI7
aI8
aI9
asI7
(lp560
I6
aI8
aI9
aI10
asI8
(lp561
I6
aI7
aI9
aI10
asI9
(lp562
I6
aI7
aI8
aI10
asI10
(lp563
I6
aI8
aI9
aI0
assS'labeled_nodes'
p564
(lp565
I0
aI1
aI6
aI7
asS'action_keys'
p566
(lp567
S'right'
p568
aS'left'
p569
asS'node_values'
p570
(dp571
I0
g25
(g27
S'S\x98\x93\x9d\xf2?!@'
tRp572
sI1
g25
(g27
S'\x00\x00\x00\x00\x00\x00$@'
tRp573
sI2
g25
(g27
S'\x95<\xa3C"\xd1#@'
tRp574
sI3
g25
(g27
S'\xfbG\xa5\xc5Lt#@'
tRp575
sI4
g25
(g27
S'p\xc1\xc6\x14\xd6\xb9!@'
tRp576
sI5
g25
(g27
S'\xc0\xda <\xc9\xab\x12@'
tRp577
sI6
g25
(g27
S'W\x86\x878\x00/\xf3?'
tRp578
sI7
g25
(g27
S'\x00\x00\x00\x00\x00\x00\x00\x00'
tRp579
sI8
g25
(g27
S'\x82\x84\x9aNQ\\\xf1?'
tRp580
sI9
g25
(g27
S'q,3x\x84\xd9\xf1?'
tRp581
sI10
g25
(g27
S'\xd0AB\xf4\x83\xec\x08@'
tRp582
sssS'WC'
p583
(dp584
S'graph'
p585
(dp586
I0
(lp587
I1
aI2
aI3
aI10
asI1
(lp588
I0
aI2
aI3
aI4
asI2
(lp589
I0
aI1
aI3
aI4
asI3
(lp590
I0
aI1
aI2
aI4
asI4
(lp591
I1
aI2
aI3
aI5
asI5
(lp592
I4
aI6
asI6
(lp593
I5
aI7
aI8
aI9
asI7
(lp594
I6
aI8
aI9
aI10
asI8
(lp595
I6
aI7
aI9
aI10
asI9
(lp596
I6
aI7
aI8
aI10
asI10
(lp597
I6
aI8
aI9
aI0
assS'labeled_nodes'
p598
(lp599
I0
aI1
aI6
aI7
asS'action_keys'
p600
(lp601
S'right'
p602
aS'left'
p603
asS'node_values'
p604
(dp605
I0
g25
(g27
S'S\x98\x93\x9d\xf2?!@'
tRp606
sI1
g25
(g27
S'\x00\x00\x00\x00\x00\x00$@'
tRp607
sI2
g25
(g27
S'\x95<\xa3C"\xd1#@'
tRp608
sI3
g25
(g27
S'\xfbG\xa5\xc5Lt#@'
tRp609
sI4
g25
(g27
S'p\xc1\xc6\x14\xd6\xb9!@'
tRp610
sI5
g25
(g27
S'\xc0\xda <\xc9\xab\x12@'
tRp611
sI6
g25
(g27
S'W\x86\x878\x00/\xf3?'
tRp612
sI7
g25
(g27
S'\x00\x00\x00\x00\x00\x00\x00\x00'
tRp613
sI8
g25
(g27
S'\x82\x84\x9aNQ\\\xf1?'
tRp614
sI9
g25
(g27
S'q,3x\x84\xd9\xf1?'
tRp615
sI10
g25
(g27
S'\xd0AB\xf4\x83\xec\x08@'
tRp616
sss.