(dp1
S'total_points'
p2
I286
sS'subjid'
p3
S'502'
p4
sS'RLdata'
p5
(lp6
(dp7
S'rewards'
p8
(I1
I0
tp9
sS'secondary_responses'
p10
(lp11
sS'trialnum'
p12
I1
sS'exp_stage'
p13
S'RL_task'
p14
sS'duration'
p15
F2.5
sS'rewarded'
p16
I0
sS'secondary_rts'
p17
(lp18
sS'stim_indices'
p19
(lp20
I11
aI1
asS'rt'
p21
F0.90676593780517578
sS'stim_files'
p22
(lp23
S'images/9.png'
p24
aS'images/14.png'
p25
asS'display_reward'
p26
I0
sS'feedback_duration'
p27
I1
sS'correct_choice'
p28
I0
sS'response'
p29
I1
sS'onset'
p30
F2.0511300563812256
sS'values'
p31
(F0.88900000000000001
F0.10000000000000001
tp32
sS'stim_set'
p33
(I1
I6
I11
tp34
sS'correct'
p35
I00
sa(dp36
g8
(I0
I1
tp37
sg10
(lp38
sg12
I2
sg13
g14
sg15
F2.5
sg16
I1
sg17
(lp39
sg19
(lp40
I11
aI1
asg21
F2.0451090335845947
sg22
(lp41
g24
ag25
asg26
I0
sg27
I1
sg28
I0
sg29
I1
sg30
F5.6612241268157959
sg31
(F0.88900000000000001
F0.10000000000000001
tp42
sg33
g34
sg35
I00
sa(dp43
g8
(I0
I0
tp44
sg10
(lp45
sg12
I3
sg13
g14
sg15
F2.5
sg16
I0
sg17
(lp46
sg19
(lp47
I11
aI1
asg21
F0.96006584167480469
sg22
(lp48
g24
ag25
asg26
I0
sg27
I1
sg28
I0
sg29
I0
sg30
F9.2426669597625732
sg31
(F0.88900000000000001
F0.10000000000000001
tp49
sg33
g34
sg35
I01
sa(dp50
g8
(I1
I0
tp51
sg10
(lp52
sg12
I4
sg13
g14
sg15
F2.5
sg16
I0
sg17
(lp53
sg19
(lp54
I11
aI6
asg21
F0.90004491806030273
sg22
(lp55
g24
aS'images/10.png'
p56
asg26
I0
sg27
I1
sg28
I0
sg29
I1
sg30
F12.813349962234497
sg31
(F0.88900000000000001
F0.44900000000000001
tp57
sg33
g34
sg35
I00
sa(dp58
g8
(I0
I1
tp59
sg10
(lp60
sg12
I5
sg13
g14
sg15
F2.5
sg16
I0
sg17
(lp61
sg19
(lp62
I1
aI11
asg21
F0.73846197128295898
sg22
(lp63
g25
ag24
asg26
I0
sg27
I1
sg28
I1
sg29
I0
sg30
F16.383625984191895
sg31
(F0.10000000000000001
F0.88900000000000001
tp64
sg33
g34
sg35
I00
sa(dp65
g8
(I0
I1
tp66
sg10
(lp67
sg12
I6
sg13
g14
sg15
F2.5
sg16
I0
sg17
(lp68
sg19
(lp69
I1
aI11
asg21
F0.62188100814819336
sg22
(lp70
g25
ag24
asg26
I0
sg27
I1
sg28
I1
sg29
I0
sg30
F19.954551935195923
sg31
(F0.10000000000000001
F0.88900000000000001
tp71
sg33
g34
sg35
I00
sa(dp72
g8
(I0
I0
tp73
sg10
(lp74
sg12
I7
sg13
g14
sg15
F2.5
sg16
I0
sg17
(lp75
sg19
(lp76
I6
aI1
asg21
F1.4610879421234131
sg22
(lp77
g56
ag25
asg26
I0
sg27
I1
sg28
I0
sg29
I0
sg30
F23.52495002746582
sg31
(F0.44900000000000001
F0.10000000000000001
tp78
sg33
g34
sg35
I01
sa(dp79
g8
(I0
I1
tp80
sg10
(lp81
sg12
I8
sg13
g14
sg15
F2.5
sg16
I1
sg17
(lp82
sg19
(lp83
I1
aI11
asg21
F1.502155065536499
sg22
(lp84
g25
ag24
asg26
I0
sg27
I1
sg28
I1
sg29
I1
sg30
F27.095319032669067
sg31
(F0.10000000000000001
F0.88900000000000001
tp85
sg33
g34
sg35
I01
sa(dp86
g8
(I1
I0
tp87
sg10
(lp88
sg12
I9
sg13
g14
sg15
F2.5
sg16
I0
sg17
(lp89
sg19
(lp90
I11
aI6
asg21
F0.71014904975891113
sg22
(lp91
g24
ag56
asg26
I0
sg27
I1
sg28
I0
sg29
I1
sg30
F30.665743112564087
sg31
(F0.88900000000000001
F0.44900000000000001
tp92
sg33
g34
sg35
I00
sa(dp93
g8
(I0
I0
tp94
sg10
(lp95
sg12
I10
sg13
g14
sg15
F2.5
sg16
I0
sg17
(lp96
sg19
(lp97
I6
aI1
asg21
F1.0431928634643555
sg22
(lp98
g56
ag25
asg26
I0
sg27
I1
sg28
I0
sg29
I1
sg30
F34.23626708984375
sg31
(F0.44900000000000001
F0.10000000000000001
tp99
sg33
g34
sg35
I00
sa(dp100
g8
(I0
I0
tp101
sg10
(lp102
sg12
I11
sg13
g14
sg15
F2.5
sg16
I0
sg17
(lp103
sg19
(lp104
I11
aI1
asg21
F1.8266611099243164
sg22
(lp105
g24
ag25
asg26
I1
sg27
I1
sg28
I0
sg29
I0
sg30
F37.807708024978638
sg31
(F0.88900000000000001
F0.10000000000000001
tp106
sg33
g34
sg35
I01
sa(dp107
g8
(I0
I0
tp108
sg10
(lp109
sg12
I12
sg13
g14
sg15
F2.5
sg16
I0
sg17
(lp110
sg19
(lp111
I1
aI11
asg21
F1.3162760734558105
sg22
(lp112
g25
ag24
asg26
I1
sg27
I1
sg28
I1
sg29
I0
sg30
F41.377017974853516
sg31
(F0.10000000000000001
F0.88900000000000001
tp113
sg33
g34
sg35
I00
sa(dp114
g8
(I0
I1
tp115
sg10
(lp116
sg12
I13
sg13
g14
sg15
F2.5
sg16
I1
sg17
(lp117
sg19
(lp118
I1
aI11
asg21
F1.6045069694519043
sg22
(lp119
g25
ag24
asg26
I1
sg27
I1
sg28
I1
sg29
I1
sg30
F44.947558164596558
sg31
(F0.10000000000000001
F0.88900000000000001
tp120
sg33
g34
sg35
I01
sa(dp121
g8
(I1
I0
tp122
sg10
(lp123
sg12
I14
sg13
g14
sg15
F2.5
sg16
I1
sg17
(lp124
sg19
(lp125
I11
aI6
asg21
F1.3192338943481445
sg22
(lp126
g24
ag56
asg26
I1
sg27
I1
sg28
I0
sg29
I0
sg30
F48.518228054046631
sg31
(F0.88900000000000001
F0.44900000000000001
tp127
sg33
g34
sg35
I01
sa(dp128
g8
(I0
I1
tp129
sg10
(lp130
sg12
I15
sg13
g14
sg15
F2.5
sg16
I1
sg17
(lp131
sg19
(lp132
I1
aI11
asg21
F0.70744705200195312
sg22
(lp133
g25
ag24
asg26
I1
sg27
I1
sg28
I1
sg29
I1
sg30
F52.089081048965454
sg31
(F0.10000000000000001
F0.88900000000000001
tp134
sg33
g34
sg35
I01
sa(dp135
g8
(I1
I0
tp136
sg10
(lp137
sg12
I16
sg13
g14
sg15
F2.5
sg16
I1
sg17
(lp138
sg19
(lp139
I11
aI6
asg21
F0.71489810943603516
sg22
(lp140
g24
ag56
asg26
I1
sg27
I1
sg28
I0
sg29
I0
sg30
F55.659233093261719
sg31
(F0.88900000000000001
F0.44900000000000001
tp141
sg33
g34
sg35
I01
sa(dp142
g8
(I1
I1
tp143
sg10
(lp144
sg12
I17
sg13
g14
sg15
F2.5
sg16
I1
sg17
(lp145
sg19
(lp146
I1
aI6
asg21
F1.1886208057403564
sg22
(lp147
g25
ag56
asg26
I1
sg27
I1
sg28
I1
sg29
I1
sg30
F59.229740142822266
sg31
(F0.10000000000000001
F0.44900000000000001
tp148
sg33
g34
sg35
I01
sa(dp149
g8
(I0
I0
tp150
sg10
(lp151
sg12
I18
sg13
g14
sg15
F2.5
sg16
I0
sg17
(lp152
sg19
(lp153
I1
aI6
asg21
F0.49786090850830078
sg22
(lp154
g25
ag56
asg26
I1
sg27
I1
sg28
I1
sg29
I1
sg30
F62.817564010620117
sg31
(F0.10000000000000001
F0.44900000000000001
tp155
sg33
g34
sg35
I01
sa(dp156
g8
(I1
I1
tp157
sg10
(lp158
sg12
I19
sg13
g14
sg15
F2.5
sg16
I1
sg17
(lp159
sg19
(lp160
I6
aI11
asg21
F0.79716801643371582
sg22
(lp161
g56
ag24
asg26
I1
sg27
I1
sg28
I1
sg29
I0
sg30
F66.388261079788208
sg31
(F0.44900000000000001
F0.88900000000000001
tp162
sg33
g34
sg35
I00
sa(dp163
g8
(I1
I0
tp164
sg10
(lp165
sg12
I20
sg13
g14
sg15
F2.5
sg16
I1
sg17
(lp166
sg19
(lp167
I11
aI1
asg21
F1.0295939445495605
sg22
(lp168
g24
ag25
asg26
I1
sg27
I1
sg28
I0
sg29
I0
sg30
F69.958404064178467
sg31
(F0.88900000000000001
F0.10000000000000001
tp169
sg33
g34
sg35
I01
sa(dp170
g8
(I0
I0
tp171
sg10
(lp172
sg12
I21
sg13
g14
sg15
F2.5
sg16
I0
sg17
(lp173
sg19
(lp174
I6
aI1
asg21
F0.92440605163574219
sg22
(lp175
g56
ag25
asg26
I1
sg27
I1
sg28
I0
sg29
I0
sg30
F73.528526067733765
sg31
(F0.44900000000000001
F0.10000000000000001
tp176
sg33
g34
sg35
I01
sa(dp177
g8
(I1
I1
tp178
sg10
(lp179
sg12
I22
sg13
g14
sg15
F2.5
sg16
I1
sg17
(lp180
sg19
(lp181
I6
aI11
asg21
F1.2802109718322754
sg22
(lp182
g56
ag24
asg26
I1
sg27
I1
sg28
I1
sg29
I0
sg30
F77.099002122879028
sg31
(F0.44900000000000001
F0.88900000000000001
tp183
sg33
g34
sg35
I00
sa(dp184
g8
(I0
I0
tp185
sg10
(lp186
sg12
I23
sg13
g14
sg15
F2.5
sg16
I0
sg17
(lp187
sg19
(lp188
I6
aI1
asg21
F0.67934203147888184
sg22
(lp189
g56
ag25
asg26
I1
sg27
I1
sg28
I0
sg29
I1
sg30
F80.669470071792603
sg31
(F0.44900000000000001
F0.10000000000000001
tp190
sg33
g34
sg35
I00
sa(dp191
g8
(I0
I1
tp192
sg10
(lp193
sg12
I24
sg13
g14
sg15
F2.5
sg16
I0
sg17
(lp194
sg19
(lp195
I6
aI11
asg21
F1.1590621471405029
sg22
(lp196
g56
ag24
asg26
I1
sg27
I1
sg28
I1
sg29
I0
sg30
F84.239899158477783
sg31
(F0.44900000000000001
F0.88900000000000001
tp197
sg33
g34
sg35
I00
sa(dp198
g8
(I0
I0
tp199
sg10
(lp200
sg12
I25
sg13
g14
sg15
F2.5
sg16
I0
sg17
(lp201
sg19
(lp202
I1
aI6
asg21
F1.863184928894043
sg22
(lp203
g25
ag56
asg26
I1
sg27
I1
sg28
I1
sg29
I0
sg30
F87.81062912940979
sg31
(F0.10000000000000001
F0.44900000000000001
tp204
sg33
g34
sg35
I00
sa(dp205
g8
(I1
I0
tp206
sg10
(lp207
sg12
I26
sg13
g14
sg15
F2.5
sg16
I1
sg17
(lp208
sg19
(lp209
I11
aI6
asg21
F1.893247127532959
sg22
(lp210
g24
ag56
asg26
I1
sg27
I1
sg28
I0
sg29
I0
sg30
F91.381309032440186
sg31
(F0.88900000000000001
F0.44900000000000001
tp211
sg33
g34
sg35
I01
sa(dp212
g8
(I1
I0
tp213
sg10
(lp214
sg12
I27
sg13
g14
sg15
F2.5
sg16
I1
sg17
(lp215
sg19
(lp216
I11
aI1
asg21
F1.0224270820617676
sg22
(lp217
g24
ag25
asg26
I1
sg27
I1
sg28
I0
sg29
I0
sg30
F94.952012062072754
sg31
(F0.88900000000000001
F0.10000000000000001
tp218
sg33
g34
sg35
I01
sa(dp219
g8
(I0
I0
tp220
sg10
(lp221
sg12
I28
sg13
g14
sg15
F2.5
sg16
I0
sg17
(lp222
sg19
(lp223
I1
aI6
asg21
F1.434453010559082
sg22
(lp224
g25
ag56
asg26
I1
sg27
I1
sg28
I1
sg29
I0
sg30
F98.522104024887085
sg31
(F0.10000000000000001
F0.44900000000000001
tp225
sg33
g34
sg35
I00
sa(dp226
g8
(I0
I1
tp227
sg10
(lp228
sg12
I29
sg13
g14
sg15
F2.5
sg16
I0
sg17
(lp229
sg19
(lp230
I6
aI1
asg21
F1.0023899078369141
sg22
(lp231
g56
ag25
asg26
I1
sg27
I1
sg28
I0
sg29
I0
sg30
F102.09256815910339
sg31
(F0.44900000000000001
F0.10000000000000001
tp232
sg33
g34
sg35
I01
sa(dp233
g8
(I0
I1
tp234
sg10
(lp235
sg12
I30
sg13
g14
sg15
F2.5
sg16
I1
sg17
(lp236
sg19
(lp237
I1
aI6
asg21
F1.1901130676269531
sg22
(lp238
g25
ag56
asg26
I1
sg27
I1
sg28
I1
sg29
I1
sg30
F105.66291499137878
sg31
(F0.10000000000000001
F0.44900000000000001
tp239
sg33
g34
sg35
I01
sa(dp240
g8
(I1
I0
tp241
sg10
(lp242
sg12
I31
sg13
g14
sg15
F2.5
sg16
I1
sg17
(lp243
sg19
(lp244
I11
aI1
asg21
F0.78086400032043457
sg22
(lp245
g24
ag25
asg26
I1
sg27
I1
sg28
I0
sg29
I0
sg30
F109.23351311683655
sg31
(F0.88900000000000001
F0.10000000000000001
tp246
sg33
g34
sg35
I01
sa(dp247
g8
(I0
I1
tp248
sg10
(lp249
sg12
I32
sg13
g14
sg15
F2.5
sg16
I1
sg17
(lp250
sg19
(lp251
I6
aI11
asg21
F0.6299588680267334
sg22
(lp252
g56
ag24
asg26
I1
sg27
I1
sg28
I1
sg29
I1
sg30
F112.80386996269226
sg31
(F0.44900000000000001
F0.88900000000000001
tp253
sg33
g34
sg35
I01
sa(dp254
g8
(I1
I0
tp255
sg10
(lp256
sg12
I33
sg13
g14
sg15
F2.5
sg16
I1
sg17
(lp257
sg19
(lp258
I11
aI1
asg21
F1.0643560886383057
sg22
(lp259
g24
ag25
asg26
I1
sg27
I1
sg28
I0
sg29
I0
sg30
F116.37450814247131
sg31
(F0.88900000000000001
F0.10000000000000001
tp260
sg33
g34
sg35
I01
sa(dp261
g8
(I0
I1
tp262
sg10
(lp263
sg12
I34
sg13
g14
sg15
F2.5
sg16
I1
sg17
(lp264
sg19
(lp265
I1
aI11
asg21
F0.57705998420715332
sg22
(lp266
g25
ag24
asg26
I1
sg27
I1
sg28
I1
sg29
I1
sg30
F119.94536399841309
sg31
(F0.10000000000000001
F0.88900000000000001
tp267
sg33
g34
sg35
I01
sa(dp268
g8
(I1
I0
tp269
sg10
(lp270
sg12
I35
sg13
g14
sg15
F2.5
sg16
I1
sg17
(lp271
sg19
(lp272
I11
aI1
asg21
F0.5947721004486084
sg22
(lp273
g24
ag25
asg26
I1
sg27
I1
sg28
I0
sg29
I0
sg30
F123.51566505432129
sg31
(F0.88900000000000001
F0.10000000000000001
tp274
sg33
g34
sg35
I01
sa(dp275
g8
(I0
I1
tp276
sg10
(lp277
sg12
I36
sg13
g14
sg15
F2.5
sg16
I1
sg17
(lp278
sg19
(lp279
I6
aI1
asg21
F1.1421310901641846
sg22
(lp280
g56
ag25
asg26
I1
sg27
I1
sg28
I0
sg29
I1
sg30
F127.08652997016907
sg31
(F0.44900000000000001
F0.10000000000000001
tp281
sg33
g34
sg35
I00
sa(dp282
g8
(I1
I0
tp283
sg10
(lp284
sg12
I37
sg13
g14
sg15
F2.5
sg16
I0
sg17
(lp285
sg19
(lp286
I1
aI6
asg21
F0.99152302742004395
sg22
(lp287
g25
ag56
asg26
I1
sg27
I1
sg28
I1
sg29
I1
sg30
F130.65647602081299
sg31
(F0.10000000000000001
F0.44900000000000001
tp288
sg33
g34
sg35
I01
sa(dp289
g8
(I0
I0
tp290
sg10
(lp291
sg12
I38
sg13
g14
sg15
F2.5
sg16
I0
sg17
(lp292
sg19
(lp293
I6
aI1
asg21
F0.79577398300170898
sg22
(lp294
g56
ag25
asg26
I1
sg27
I1
sg28
I0
sg29
I1
sg30
F134.22752404212952
sg31
(F0.44900000000000001
F0.10000000000000001
tp295
sg33
g34
sg35
I00
sa(dp296
g8
(I1
I0
tp297
sg10
(lp298
sg12
I39
sg13
g14
sg15
F2.5
sg16
I1
sg17
(lp299
sg19
(lp300
I11
aI6
asg21
F0.76920294761657715
sg22
(lp301
g24
ag56
asg26
I1
sg27
I1
sg28
I0
sg29
I0
sg30
F137.79799103736877
sg31
(F0.88900000000000001
F0.44900000000000001
tp302
sg33
g34
sg35
I01
sa(dp303
g8
(I1
I0
tp304
sg10
(lp305
sg12
I40
sg13
g14
sg15
F2.5
sg16
I1
sg17
(lp306
sg19
(lp307
I6
aI1
asg21
F0.85533308982849121
sg22
(lp308
g56
ag25
asg26
I1
sg27
I1
sg28
I0
sg29
I0
sg30
F141.36804604530334
sg31
(F0.44900000000000001
F0.10000000000000001
tp309
sg33
g34
sg35
I01
sa(dp310
g8
(I1
I1
tp311
sg10
(lp312
sg12
I41
sg13
g14
sg15
F2.5
sg16
I1
sg17
(lp313
sg19
(lp314
I6
aI1
asg21
F0.61471104621887207
sg22
(lp315
g56
ag25
asg26
I1
sg27
I1
sg28
I0
sg29
I0
sg30
F144.93891501426697
sg31
(F0.44900000000000001
F0.10000000000000001
tp316
sg33
g34
sg35
I01
sa(dp317
g8
(I0
I0
tp318
sg10
(lp319
sg12
I42
sg13
g14
sg15
F2.5
sg16
I0
sg17
(lp320
sg19
(lp321
I6
aI11
asg21
F0.77915811538696289
sg22
(lp322
g56
ag24
asg26
I1
sg27
I1
sg28
I1
sg29
I1
sg30
F148.50888800621033
sg31
(F0.44900000000000001
F0.88900000000000001
tp323
sg33
g34
sg35
I01
sa(dp324
g8
(I1
I1
tp325
sg10
(lp326
sg12
I43
sg13
g14
sg15
F2.5
sg16
I1
sg17
(lp327
sg19
(lp328
I6
aI11
asg21
F1.0449409484863281
sg22
(lp329
g56
ag24
asg26
I1
sg27
I1
sg28
I1
sg29
I0
sg30
F152.07968902587891
sg31
(F0.44900000000000001
F0.88900000000000001
tp330
sg33
g34
sg35
I00
sa(dp331
g8
(I0
I0
tp332
sg10
(lp333
sg12
I44
sg13
g14
sg15
F2.5
sg16
I0
sg17
(lp334
sg19
(lp335
I6
aI1
asg21
F1.1421339511871338
sg22
(lp336
g56
ag25
asg26
I1
sg27
I1
sg28
I0
sg29
I0
sg30
F155.65003395080566
sg31
(F0.44900000000000001
F0.10000000000000001
tp337
sg33
g34
sg35
I01
sa(dp338
g8
(I1
I0
tp339
sg10
(lp340
sg12
I45
sg13
g14
sg15
F2.5
sg16
I0
sg17
(lp341
sg19
(lp342
I6
aI1
asg21
F1.8464908599853516
sg22
(lp343
g56
ag25
asg26
I1
sg27
I1
sg28
I0
sg29
I1
sg30
F159.22050809860229
sg31
(F0.44900000000000001
F0.10000000000000001
tp344
sg33
g34
sg35
I00
sa(dp345
g8
(I1
I1
tp346
sg10
(lp347
sg12
I46
sg13
g14
sg15
F2.5
sg16
I1
sg17
(lp348
sg19
(lp349
I6
aI11
asg21
F0.89725184440612793
sg22
(lp350
g56
ag24
asg26
I1
sg27
I1
sg28
I1
sg29
I1
sg30
F162.79135298728943
sg31
(F0.44900000000000001
F0.88900000000000001
tp351
sg33
g34
sg35
I01
sa(dp352
g8
(I1
I0
tp353
sg10
(lp354
sg12
I47
sg13
g14
sg15
F2.5
sg16
I1
sg17
(lp355
sg19
(lp356
I11
aI6
asg21
F0.93802094459533691
sg22
(lp357
g24
ag56
asg26
I1
sg27
I1
sg28
I0
sg29
I0
sg30
F166.36151504516602
sg31
(F0.88900000000000001
F0.44900000000000001
tp358
sg33
g34
sg35
I01
sa(dp359
g8
(I0
I0
tp360
sg10
(lp361
sg12
I48
sg13
g14
sg15
F2.5
sg16
I0
sg17
(lp362
sg19
(lp363
I6
aI1
asg21
F1.3387339115142822
sg22
(lp364
g56
ag25
asg26
I1
sg27
I1
sg28
I0
sg29
I1
sg30
F169.932284116745
sg31
(F0.44900000000000001
F0.10000000000000001
tp365
sg33
g34
sg35
I00
sa(dp366
g8
(I1
I0
tp367
sg10
(lp368
sg12
I49
sg13
g14
sg15
F2.5
sg16
I0
sg17
(lp369
sg19
(lp370
I6
aI1
asg21
F0.6370391845703125
sg22
(lp371
g56
ag25
asg26
I1
sg27
I1
sg28
I0
sg29
I1
sg30
F173.50269198417664
sg31
(F0.44900000000000001
F0.10000000000000001
tp372
sg33
g34
sg35
I00
sa(dp373
g8
(I0
I1
tp374
sg10
(lp375
sg12
I50
sg13
g14
sg15
F2.5
sg16
I1
sg17
(lp376
sg19
(lp377
I1
aI6
asg21
F1.7574639320373535
sg22
(lp378
g25
ag56
asg26
I1
sg27
I1
sg28
I1
sg29
I1
sg30
F177.07302713394165
sg31
(F0.10000000000000001
F0.44900000000000001
tp379
sg33
g34
sg35
I01
sa(dp380
g8
(I1
I0
tp381
sg10
(lp382
sg12
I51
sg13
g14
sg15
F2.5
sg16
I1
sg17
(lp383
sg19
(lp384
I11
aI1
asg21
F0.76374912261962891
sg22
(lp385
g24
ag25
asg26
I1
sg27
I1
sg28
I0
sg29
I0
sg30
F180.64414811134338
sg31
(F0.88900000000000001
F0.10000000000000001
tp386
sg33
g34
sg35
I01
sa(dp387
g8
(I0
I0
tp388
sg10
(lp389
sg12
I52
sg13
g14
sg15
F2.5
sg16
I0
sg17
(lp390
sg19
(lp391
I6
aI1
asg21
F1.1417131423950195
sg22
(lp392
g56
ag25
asg26
I1
sg27
I1
sg28
I0
sg29
I0
sg30
F184.2141101360321
sg31
(F0.44900000000000001
F0.10000000000000001
tp393
sg33
g34
sg35
I01
sa(dp394
g8
(I1
I0
tp395
sg10
(lp396
sg12
I53
sg13
g14
sg15
F2.5
sg16
I0
sg17
(lp397
sg19
(lp398
I6
aI1
asg21
F1.8800699710845947
sg22
(lp399
g56
ag25
asg26
I1
sg27
I1
sg28
I0
sg29
I1
sg30
F187.78575396537781
sg31
(F0.44900000000000001
F0.10000000000000001
tp400
sg33
g34
sg35
I00
sa(dp401
g8
(I0
I1
tp402
sg10
(lp403
sg12
I54
sg13
g14
sg15
F2.5
sg16
I1
sg17
(lp404
sg19
(lp405
I1
aI6
asg21
F0.75099897384643555
sg22
(lp406
g25
ag56
asg26
I1
sg27
I1
sg28
I1
sg29
I1
sg30
F191.35592007637024
sg31
(F0.10000000000000001
F0.44900000000000001
tp407
sg33
g34
sg35
I01
sa(dp408
g8
(I0
I1
tp409
sg10
(lp410
sg12
I55
sg13
g14
sg15
F2.5
sg16
I1
sg17
(lp411
sg19
(lp412
I6
aI11
asg21
F0.71266508102416992
sg22
(lp413
g56
ag24
asg26
I1
sg27
I1
sg28
I1
sg29
I1
sg30
F194.92563700675964
sg31
(F0.44900000000000001
F0.88900000000000001
tp414
sg33
g34
sg35
I01
sa(dp415
g8
(I1
I0
tp416
sg10
(lp417
sg12
I56
sg13
g14
sg15
F2.5
sg16
I1
sg17
(lp418
sg19
(lp419
I11
aI6
asg21
F0.87767386436462402
sg22
(lp420
g24
ag56
asg26
I1
sg27
I1
sg28
I0
sg29
I0
sg30
F198.49632501602173
sg31
(F0.88900000000000001
F0.44900000000000001
tp421
sg33
g34
sg35
I01
sa(dp422
g8
(I1
I1
tp423
sg10
(lp424
sg12
I57
sg13
g14
sg15
F2.5
sg16
I1
sg17
(lp425
sg19
(lp426
I11
aI6
asg21
F0.63667798042297363
sg22
(lp427
g24
ag56
asg26
I1
sg27
I1
sg28
I0
sg29
I0
sg30
F202.06689715385437
sg31
(F0.88900000000000001
F0.44900000000000001
tp428
sg33
g34
sg35
I01
sa(dp429
g8
(I0
I1
tp430
sg10
(lp431
sg12
I58
sg13
g14
sg15
F2.5
sg16
I1
sg17
(lp432
sg19
(lp433
I1
aI11
asg21
F1.0265147686004639
sg22
(lp434
g25
ag24
asg26
I1
sg27
I1
sg28
I1
sg29
I1
sg30
F205.63717007637024
sg31
(F0.10000000000000001
F0.88900000000000001
tp435
sg33
g34
sg35
I01
sa(dp436
g8
(I0
I1
tp437
sg10
(lp438
sg12
I59
sg13
g14
sg15
F2.5
sg16
I1
sg17
(lp439
sg19
(lp440
I1
aI11
asg21
F0.57210302352905273
sg22
(lp441
g25
ag24
asg26
I1
sg27
I1
sg28
I1
sg29
I1
sg30
F209.20752096176147
sg31
(F0.10000000000000001
F0.88900000000000001
tp442
sg33
g34
sg35
I01
sa(dp443
g8
(I0
I0
tp444
sg10
(lp445
sg12
I60
sg13
g14
sg15
F2.5
sg16
I0
sg17
(lp446
sg19
(lp447
I1
aI6
asg21
F1.1198079586029053
sg22
(lp448
g25
ag56
asg26
I1
sg27
I1
sg28
I1
sg29
I1
sg30
F212.77823901176453
sg31
(F0.10000000000000001
F0.44900000000000001
tp449
sg33
g34
sg35
I01
sa(dp450
g8
(I0
I1
tp451
sg10
(lp452
sg12
I61
sg13
g14
sg15
F2.5
sg16
I1
sg17
(lp453
sg19
(lp454
I1
aI11
asg21
F0.68762087821960449
sg22
(lp455
g25
ag24
asg26
I1
sg27
I1
sg28
I1
sg29
I1
sg30
F216.34875202178955
sg31
(F0.10000000000000001
F0.88900000000000001
tp456
sg33
g34
sg35
I01
sa(dp457
g8
(I0
I0
tp458
sg10
(lp459
sg12
I62
sg13
g14
sg15
F2.5
sg16
I0
sg17
(lp460
sg19
(lp461
I11
aI1
asg21
F0.54844307899475098
sg22
(lp462
g24
ag25
asg26
I1
sg27
I1
sg28
I0
sg29
I0
sg30
F219.91939496994019
sg31
(F0.88900000000000001
F0.10000000000000001
tp463
sg33
g34
sg35
I01
sa(dp464
g8
(I0
I0
tp465
sg10
(lp466
sg12
I63
sg13
g14
sg15
F2.5
sg16
I0
sg17
(lp467
sg19
(lp468
I1
aI6
asg21
F1.1853430271148682
sg22
(lp469
g25
ag56
asg26
I1
sg27
I1
sg28
I1
sg29
I0
sg30
F223.49002504348755
sg31
(F0.10000000000000001
F0.44900000000000001
tp470
sg33
g34
sg35
I00
sa(dp471
g8
(I1
I0
tp472
sg10
(lp473
sg12
I64
sg13
g14
sg15
F2.5
sg16
I1
sg17
(lp474
sg19
(lp475
I11
aI6
asg21
F0.73090910911560059
sg22
(lp476
g24
ag56
asg26
I1
sg27
I1
sg28
I0
sg29
I0
sg30
F227.06029295921326
sg31
(F0.88900000000000001
F0.44900000000000001
tp477
sg33
g34
sg35
I01
sa(dp478
g8
(I0
I0
tp479
sg10
(lp480
sg12
I65
sg13
g14
sg15
F2.5
sg16
I0
sg17
(lp481
sg19
(lp482
I6
aI1
asg21
F1.9870181083679199
sg22
(lp483
g56
ag25
asg26
I1
sg27
I1
sg28
I0
sg29
I1
sg30
F230.63092112541199
sg31
(F0.44900000000000001
F0.10000000000000001
tp484
sg33
g34
sg35
I00
sa(dp485
g8
(I1
I0
tp486
sg10
(lp487
sg12
I66
sg13
g14
sg15
F2.5
sg16
I1
sg17
(lp488
sg19
(lp489
I11
aI6
asg21
F0.72266316413879395
sg22
(lp490
g24
ag56
asg26
I1
sg27
I1
sg28
I0
sg29
I0
sg30
F234.20140194892883
sg31
(F0.88900000000000001
F0.44900000000000001
tp491
sg33
g34
sg35
I01
sa(dp492
g8
(I1
I0
tp493
sg10
(lp494
sg12
I67
sg13
g14
sg15
F2.5
sg16
I1
sg17
(lp495
sg19
(lp496
I11
aI1
asg21
F0.66202902793884277
sg22
(lp497
g24
ag25
asg26
I1
sg27
I1
sg28
I0
sg29
I0
sg30
F237.77187395095825
sg31
(F0.88900000000000001
F0.10000000000000001
tp498
sg33
g34
sg35
I01
sa(dp499
g8
(I0
I1
tp500
sg10
(lp501
sg12
I68
sg13
g14
sg15
F2.5
sg16
I0
sg17
(lp502
sg19
(lp503
I1
aI6
asg21
F1.1644940376281738
sg22
(lp504
g25
ag56
asg26
I1
sg27
I1
sg28
I1
sg29
I0
sg30
F241.34257316589355
sg31
(F0.10000000000000001
F0.44900000000000001
tp505
sg33
g34
sg35
I00
sa(dp506
g8
(I0
I1
tp507
sg10
(lp508
sg12
I69
sg13
g14
sg15
F2.5
sg16
I0
sg17
(lp509
sg19
(lp510
I1
aI6
asg21
F0.75516700744628906
sg22
(lp511
g25
ag56
asg26
I1
sg27
I1
sg28
I1
sg29
I0
sg30
F244.91296601295471
sg31
(F0.10000000000000001
F0.44900000000000001
tp512
sg33
g34
sg35
I00
sa(dp513
g8
(I0
I0
tp514
sg10
(lp515
sg12
I70
sg13
g14
sg15
F2.5
sg16
I0
sg17
(lp516
sg19
(lp517
I1
aI6
asg21
F0.6946718692779541
sg22
(lp518
g25
ag56
asg26
I1
sg27
I1
sg28
I1
sg29
I1
sg30
F248.48349714279175
sg31
(F0.10000000000000001
F0.44900000000000001
tp519
sg33
g34
sg35
I01
sa(dp520
g8
(I0
I1
tp521
sg10
(lp522
sg12
I71
sg13
g14
sg15
F2.5
sg16
I1
sg17
(lp523
sg19
(lp524
I1
aI6
asg21
F0.73563313484191895
sg22
(lp525
g25
ag56
asg26
I1
sg27
I1
sg28
I1
sg29
I1
sg30
F252.05370211601257
sg31
(F0.10000000000000001
F0.44900000000000001
tp526
sg33
g34
sg35
I01
sa(dp527
g8
(I1
I0
tp528
sg10
(lp529
sg12
I72
sg13
g14
sg15
F2.5
sg16
I1
sg17
(lp530
sg19
(lp531
I11
aI6
asg21
F0.80971312522888184
sg22
(lp532
g24
ag56
asg26
I1
sg27
I1
sg28
I0
sg29
I0
sg30
F255.62409496307373
sg31
(F0.88900000000000001
F0.44900000000000001
tp533
sg33
g34
sg35
I01
sa(dp534
g8
(I1
I0
tp535
sg10
(lp536
sg12
I73
sg13
g14
sg15
F2.5
sg16
I1
sg17
(lp537
sg19
(lp538
I11
aI1
asg21
F0.72691512107849121
sg22
(lp539
g24
ag25
asg26
I1
sg27
I1
sg28
I0
sg29
I0
sg30
F259.19491815567017
sg31
(F0.88900000000000001
F0.10000000000000001
tp540
sg33
g34
sg35
I01
sa(dp541
g8
(I0
I1
tp542
sg10
(lp543
sg12
I74
sg13
g14
sg15
F2.5
sg16
I1
sg17
(lp544
sg19
(lp545
I6
aI11
asg21
F0.65535712242126465
sg22
(lp546
g56
ag24
asg26
I1
sg27
I1
sg28
I1
sg29
I1
sg30
F262.76537895202637
sg31
(F0.44900000000000001
F0.88900000000000001
tp547
sg33
g34
sg35
I01
sa(dp548
g8
(I0
I0
tp549
sg10
(lp550
sg12
I75
sg13
g14
sg15
F2.5
sg16
I0
sg17
(lp551
sg19
(lp552
I1
aI6
asg21
F1.8999412059783936
sg22
(lp553
g25
ag56
asg26
I1
sg27
I1
sg28
I1
sg29
I1
sg30
F266.33556413650513
sg31
(F0.10000000000000001
F0.44900000000000001
tp554
sg33
g34
sg35
I01
sa(dp555
g8
(I1
I1
tp556
sg10
(lp557
sg12
I76
sg13
g14
sg15
F2.5
sg16
I1
sg17
(lp558
sg19
(lp559
I6
aI11
asg21
F0.70314407348632812
sg22
(lp560
g56
ag24
asg26
I1
sg27
I1
sg28
I1
sg29
I1
sg30
F269.90619015693665
sg31
(F0.44900000000000001
F0.88900000000000001
tp561
sg33
g34
sg35
I01
sa(dp562
g8
(I0
I1
tp563
sg10
(lp564
sg12
I77
sg13
g14
sg15
F2.5
sg16
I1
sg17
(lp565
sg19
(lp566
I1
aI11
asg21
F1.1487350463867188
sg22
(lp567
g25
ag24
asg26
I1
sg27
I1
sg28
I1
sg29
I1
sg30
F273.47687411308289
sg31
(F0.10000000000000001
F0.88900000000000001
tp568
sg33
g34
sg35
I01
sa(dp569
g8
(I0
I0
tp570
sg10
(lp571
sg12
I78
sg13
g14
sg15
F2.5
sg16
I0
sg17
(lp572
sg19
(lp573
I1
aI6
asg21
F1.3021731376647949
sg22
(lp574
g25
ag56
asg26
I1
sg27
I1
sg28
I1
sg29
I0
sg30
F277.04738211631775
sg31
(F0.10000000000000001
F0.44900000000000001
tp575
sg33
g34
sg35
I00
sa(dp576
g8
(I1
I0
tp577
sg10
(lp578
sg12
I79
sg13
g14
sg15
F2.5
sg16
I1
sg17
(lp579
sg19
(lp580
I11
aI6
asg21
F0.848236083984375
sg22
(lp581
g24
ag56
asg26
I1
sg27
I1
sg28
I0
sg29
I0
sg30
F280.6180591583252
sg31
(F0.88900000000000001
F0.44900000000000001
tp582
sg33
g34
sg35
I01
sa(dp583
g8
(I1
I0
tp584
sg10
(lp585
sg12
I80
sg13
g14
sg15
F2.5
sg16
I1
sg17
(lp586
sg19
(lp587
I6
aI1
asg21
F1.8558881282806396
sg22
(lp588
g56
ag25
asg26
I1
sg27
I1
sg28
I0
sg29
I0
sg30
F284.18807411193848
sg31
(F0.44900000000000001
F0.10000000000000001
tp589
sg33
g34
sg35
I01
sa(dp590
g8
(I1
I0
tp591
sg10
(lp592
sg12
I81
sg13
g14
sg15
F2.5
sg16
I1
sg17
(lp593
sg19
(lp594
I1
aI6
asg21
F1.5371530055999756
sg22
(lp595
g25
ag56
asg26
I1
sg27
I1
sg28
I1
sg29
I0
sg30
F287.75867915153503
sg31
(F0.10000000000000001
F0.44900000000000001
tp596
sg33
g34
sg35
I00
sa(dp597
g8
(I0
I0
tp598
sg10
(lp599
sg12
I82
sg13
g14
sg15
F2.5
sg16
I0
sg17
(lp600
sg19
(lp601
I11
aI1
asg21
F0.72204303741455078
sg22
(lp602
g24
ag25
asg26
I1
sg27
I1
sg28
I0
sg29
I0
sg30
F291.32951593399048
sg31
(F0.88900000000000001
F0.10000000000000001
tp603
sg33
g34
sg35
I01
sa(dp604
g8
(I0
I1
tp605
sg10
(lp606
sg12
I83
sg13
g14
sg15
F2.5
sg16
I0
sg17
(lp607
sg19
(lp608
I1
aI6
asg21
F1.5167582035064697
sg22
(lp609
g25
ag56
asg26
I1
sg27
I1
sg28
I1
sg29
I0
sg30
F294.89979600906372
sg31
(F0.10000000000000001
F0.44900000000000001
tp610
sg33
g34
sg35
I00
sa(dp611
g8
(I0
I0
tp612
sg10
(lp613
sg12
I84
sg13
g14
sg15
F2.5
sg16
I0
sg17
(lp614
sg19
(lp615
I11
aI1
asg21
F0.53434205055236816
sg22
(lp616
g24
ag25
asg26
I1
sg27
I1
sg28
I0
sg29
I0
sg30
F298.47057008743286
sg31
(F0.88900000000000001
F0.10000000000000001
tp617
sg33
g34
sg35
I01
sa(dp618
g8
(I0
I1
tp619
sg10
(lp620
sg12
I85
sg13
g14
sg15
F2.5
sg16
I1
sg17
(lp621
sg19
(lp622
I6
aI11
asg21
F0.50715804100036621
sg22
(lp623
g56
ag24
asg26
I1
sg27
I1
sg28
I1
sg29
I1
sg30
F302.04065203666687
sg31
(F0.44900000000000001
F0.88900000000000001
tp624
sg33
g34
sg35
I01
sa(dp625
g8
(I0
I0
tp626
sg10
(lp627
sg12
I86
sg13
g14
sg15
F2.5
sg16
I0
sg17
(lp628
sg19
(lp629
I1
aI6
asg21
F1.3582370281219482
sg22
(lp630
g25
ag56
asg26
I1
sg27
I1
sg28
I1
sg29
I0
sg30
F305.61173701286316
sg31
(F0.10000000000000001
F0.44900000000000001
tp631
sg33
g34
sg35
I00
sa(dp632
g8
(I0
I0
tp633
sg10
(lp634
sg12
I87
sg13
g14
sg15
F2.5
sg16
I0
sg17
(lp635
sg19
(lp636
I6
aI11
asg21
F0.76889204978942871
sg22
(lp637
g56
ag24
asg26
I1
sg27
I1
sg28
I1
sg29
I1
sg30
F309.18215298652649
sg31
(F0.44900000000000001
F0.88900000000000001
tp638
sg33
g34
sg35
I01
sa(dp639
g8
(I0
I0
tp640
sg10
(lp641
sg12
I88
sg13
g14
sg15
F2.5
sg16
I0
sg17
(lp642
sg19
(lp643
I11
aI6
asg21
F1.0347490310668945
sg22
(lp644
g24
ag56
asg26
I1
sg27
I1
sg28
I0
sg29
I0
sg30
F312.75246596336365
sg31
(F0.88900000000000001
F0.44900000000000001
tp645
sg33
g34
sg35
I01
sa(dp646
g8
(I0
I1
tp647
sg10
(lp648
sg12
I89
sg13
g14
sg15
F2.5
sg16
I1
sg17
(lp649
sg19
(lp650
I1
aI11
asg21
F1.2667829990386963
sg22
(lp651
g25
ag24
asg26
I1
sg27
I1
sg28
I1
sg29
I1
sg30
F316.32310605049133
sg31
(F0.10000000000000001
F0.88900000000000001
tp652
sg33
g34
sg35
I01
sa(dp653
g8
(I1
I0
tp654
sg10
(lp655
sg12
I90
sg13
g14
sg15
F2.5
sg16
I0
sg17
(lp656
sg19
(lp657
I11
aI1
asg21
F1.7690880298614502
sg22
(lp658
g24
ag25
asg26
I1
sg27
I1
sg28
I0
sg29
I1
sg30
F319.89323210716248
sg31
(F0.88900000000000001
F0.10000000000000001
tp659
sg33
g34
sg35
I00
sa(dp660
g8
(I1
I1
tp661
sg10
(lp662
sg12
I91
sg13
g14
sg15
F2.5
sg16
I1
sg17
(lp663
sg19
(lp664
I6
aI11
asg21
F0.77412009239196777
sg22
(lp665
g56
ag24
asg26
I1
sg27
I1
sg28
I1
sg29
I1
sg30
F323.4638249874115
sg31
(F0.44900000000000001
F0.88900000000000001
tp666
sg33
g34
sg35
I01
sa(dp667
g8
(I1
I0
tp668
sg10
(lp669
sg12
I92
sg13
g14
sg15
F2.5
sg16
I1
sg17
(lp670
sg19
(lp671
I11
aI1
asg21
F0.81542778015136719
sg22
(lp672
g24
ag25
asg26
I1
sg27
I1
sg28
I0
sg29
I0
sg30
F327.0342869758606
sg31
(F0.88900000000000001
F0.10000000000000001
tp673
sg33
g34
sg35
I01
sa(dp674
g8
(I0
I1
tp675
sg10
(lp676
sg12
I93
sg13
g14
sg15
F2.5
sg16
I1
sg17
(lp677
sg19
(lp678
I6
aI11
asg21
F0.63129591941833496
sg22
(lp679
g56
ag24
asg26
I1
sg27
I1
sg28
I1
sg29
I1
sg30
F330.60524296760559
sg31
(F0.44900000000000001
F0.88900000000000001
tp680
sg33
g34
sg35
I01
sa(dp681
g8
(I0
I1
tp682
sg10
(lp683
sg12
I94
sg13
g14
sg15
F2.5
sg16
I1
sg17
(lp684
sg19
(lp685
I1
aI11
asg21
F0.53669190406799316
sg22
(lp686
g25
ag24
asg26
I1
sg27
I1
sg28
I1
sg29
I1
sg30
F334.17538595199585
sg31
(F0.10000000000000001
F0.88900000000000001
tp687
sg33
g34
sg35
I01
sa(dp688
g8
(I1
I1
tp689
sg10
(lp690
sg12
I95
sg13
g14
sg15
F2.5
sg16
I1
sg17
(lp691
sg19
(lp692
I11
aI1
asg21
F0.54372119903564453
sg22
(lp693
g24
ag25
asg26
I1
sg27
I1
sg28
I0
sg29
I0
sg30
F337.74655508995056
sg31
(F0.88900000000000001
F0.10000000000000001
tp694
sg33
g34
sg35
I01
sa(dp695
g8
(I0
I0
tp696
sg10
(lp697
sg12
I96
sg13
g14
sg15
F2.5
sg16
I0
sg17
(lp698
sg19
(lp699
I6
aI1
asg21
F1.563770055770874
sg22
(lp700
g56
ag25
asg26
I1
sg27
I1
sg28
I0
sg29
I1
sg30
F341.31646394729614
sg31
(F0.44900000000000001
F0.10000000000000001
tp701
sg33
g34
sg35
I00
sa(dp702
g8
(I1
I1
tp703
sg10
(lp704
sg12
I97
sg13
g14
sg15
F2.5
sg16
I1
sg17
(lp705
sg19
(lp706
I6
aI11
asg21
F0.58050799369812012
sg22
(lp707
g56
ag24
asg26
I1
sg27
I1
sg28
I1
sg29
I1
sg30
F344.88719797134399
sg31
(F0.44900000000000001
F0.88900000000000001
tp708
sg33
g34
sg35
I01
sa(dp709
g8
(I0
I1
tp710
sg10
(lp711
sg12
I98
sg13
g14
sg15
F2.5
sg16
I1
sg17
(lp712
sg19
(lp713
I1
aI11
asg21
F0.43009400367736816
sg22
(lp714
g25
ag24
asg26
I1
sg27
I1
sg28
I1
sg29
I1
sg30
F348.45761013031006
sg31
(F0.10000000000000001
F0.88900000000000001
tp715
sg33
g34
sg35
I01
sa(dp716
g8
(I0
I1
tp717
sg10
(lp718
sg12
I99
sg13
g14
sg15
F2.5
sg16
I1
sg17
(lp719
sg19
(lp720
I1
aI11
asg21
F0.51604390144348145
sg22
(lp721
g25
ag24
asg26
I1
sg27
I1
sg28
I1
sg29
I1
sg30
F352.02799797058105
sg31
(F0.10000000000000001
F0.88900000000000001
tp722
sg33
g34
sg35
I01
sa(dp723
g8
(I1
I1
tp724
sg10
(lp725
sg12
I100
sg13
g14
sg15
F2.5
sg16
I1
sg17
(lp726
sg19
(lp727
I11
aI6
asg21
F0.50029706954956055
sg22
(lp728
g24
ag56
asg26
I1
sg27
I1
sg28
I0
sg29
I0
sg30
F355.59845900535583
sg31
(F0.88900000000000001
F0.44900000000000001
tp729
sg33
g34
sg35
I01
sa(dp730
g8
(I1
I0
tp731
sg10
(lp732
sg12
I101
sg13
g14
sg15
F2.5
sg16
I1
sg17
(lp733
sg19
(lp734
I11
aI1
asg21
F0.69891810417175293
sg22
(lp735
g24
ag25
asg26
I1
sg27
I1
sg28
I0
sg29
I0
sg30
F359.16905093193054
sg31
(F0.88900000000000001
F0.10000000000000001
tp736
sg33
g34
sg35
I01
sa(dp737
g8
(I1
I0
tp738
sg10
(lp739
sg12
I102
sg13
g14
sg15
F2.5
sg16
I0
sg17
(lp740
sg19
(lp741
I6
aI11
asg21
F0.42465305328369141
sg22
(lp742
g56
ag24
asg26
I1
sg27
I1
sg28
I1
sg29
I1
sg30
F362.73969006538391
sg31
(F0.44900000000000001
F0.88900000000000001
tp743
sg33
g34
sg35
I01
sa(dp744
g8
(I1
I1
tp745
sg10
(lp746
sg12
I103
sg13
g14
sg15
F2.5
sg16
I1
sg17
(lp747
sg19
(lp748
I11
aI6
asg21
F0.66769003868103027
sg22
(lp749
g24
ag56
asg26
I1
sg27
I1
sg28
I0
sg29
I0
sg30
F366.31074905395508
sg31
(F0.88900000000000001
F0.44900000000000001
tp750
sg33
g34
sg35
I01
sa(dp751
g8
(I1
I1
tp752
sg10
(lp753
sg12
I104
sg13
g14
sg15
F2.5
sg16
I1
sg17
(lp754
sg19
(lp755
I6
aI11
asg21
F0.75366687774658203
sg22
(lp756
g56
ag24
asg26
I1
sg27
I1
sg28
I1
sg29
I1
sg30
F369.88041806221008
sg31
(F0.44900000000000001
F0.88900000000000001
tp757
sg33
g34
sg35
I01
sa(dp758
g8
(I0
I1
tp759
sg10
(lp760
sg12
I105
sg13
g14
sg15
F2.5
sg16
I1
sg17
(lp761
sg19
(lp762
I1
aI11
asg21
F1.2216649055480957
sg22
(lp763
g25
ag24
asg26
I1
sg27
I1
sg28
I1
sg29
I1
sg30
F373.45101809501648
sg31
(F0.10000000000000001
F0.88900000000000001
tp764
sg33
g34
sg35
I01
sa(dp765
g8
(I1
I0
tp766
sg10
(lp767
sg12
I106
sg13
g14
sg15
F2.5
sg16
I1
sg17
(lp768
sg19
(lp769
I11
aI1
asg21
F0.77898406982421875
sg22
(lp770
g24
ag25
asg26
I1
sg27
I1
sg28
I0
sg29
I0
sg30
F377.02150106430054
sg31
(F0.88900000000000001
F0.10000000000000001
tp771
sg33
g34
sg35
I01
sa(dp772
g8
(I1
I1
tp773
sg10
(lp774
sg12
I107
sg13
g14
sg15
F2.5
sg16
I1
sg17
(lp775
sg19
(lp776
I11
aI6
asg21
F0.56051087379455566
sg22
(lp777
g24
ag56
asg26
I1
sg27
I1
sg28
I0
sg29
I0
sg30
F380.59183597564697
sg31
(F0.88900000000000001
F0.44900000000000001
tp778
sg33
g34
sg35
I01
sa(dp779
g8
(I0
I0
tp780
sg10
(lp781
sg12
I108
sg13
g14
sg15
F2.5
sg16
I0
sg17
(lp782
sg19
(lp783
I6
aI1
asg21
F1.1411399841308594
sg22
(lp784
g56
ag25
asg26
I1
sg27
I1
sg28
I0
sg29
I0
sg30
F384.16239809989929
sg31
(F0.44900000000000001
F0.10000000000000001
tp785
sg33
g34
sg35
I01
sa(dp786
g8
(I0
I1
tp787
sg10
(lp788
sg12
I109
sg13
g14
sg15
F2.5
sg16
I1
sg17
(lp789
sg19
(lp790
I1
aI11
asg21
F0.64257121086120605
sg22
(lp791
g25
ag24
asg26
I1
sg27
I1
sg28
I1
sg29
I1
sg30
F387.7330961227417
sg31
(F0.10000000000000001
F0.88900000000000001
tp792
sg33
g34
sg35
I01
sa(dp793
g8
(I1
I1
tp794
sg10
(lp795
sg12
I110
sg13
g14
sg15
F2.5
sg16
I1
sg17
(lp796
sg19
(lp797
I6
aI11
asg21
F1.2227051258087158
sg22
(lp798
g56
ag24
asg26
I1
sg27
I1
sg28
I1
sg29
I1
sg30
F391.30338311195374
sg31
(F0.44900000000000001
F0.88900000000000001
tp799
sg33
g34
sg35
I01
sa(dp800
g8
(I1
I0
tp801
sg10
(lp802
sg12
I111
sg13
g14
sg15
F2.5
sg16
I1
sg17
(lp803
sg19
(lp804
I11
aI6
asg21
F0.64509391784667969
sg22
(lp805
g24
ag56
asg26
I1
sg27
I1
sg28
I0
sg29
I0
sg30
F394.87461614608765
sg31
(F0.88900000000000001
F0.44900000000000001
tp806
sg33
g34
sg35
I01
sa(dp807
g8
(I0
I1
tp808
sg10
(lp809
sg12
I112
sg13
g14
sg15
F2.5
sg16
I1
sg17
(lp810
sg19
(lp811
I1
aI6
asg21
F1.0681829452514648
sg22
(lp812
g25
ag56
asg26
I1
sg27
I1
sg28
I1
sg29
I1
sg30
F398.44484615325928
sg31
(F0.10000000000000001
F0.44900000000000001
tp813
sg33
g34
sg35
I01
sa(dp814
g8
(I0
I0
tp815
sg10
(lp816
sg12
I113
sg13
g14
sg15
F2.5
sg16
I0
sg17
(lp817
sg19
(lp818
I6
aI1
asg21
F0.82802414894104004
sg22
(lp819
g56
ag25
asg26
I1
sg27
I1
sg28
I0
sg29
I1
sg30
F402.01519298553467
sg31
(F0.44900000000000001
F0.10000000000000001
tp820
sg33
g34
sg35
I00
sa(dp821
g8
(I0
I1
tp822
sg10
(lp823
sg12
I114
sg13
g14
sg15
F2.5
sg16
I1
sg17
(lp824
sg19
(lp825
I6
aI11
asg21
F0.8011629581451416
sg22
(lp826
g56
ag24
asg26
I1
sg27
I1
sg28
I1
sg29
I1
sg30
F405.58573913574219
sg31
(F0.44900000000000001
F0.88900000000000001
tp827
sg33
g34
sg35
I01
sa(dp828
g8
(I0
I1
tp829
sg10
(lp830
sg12
I115
sg13
g14
sg15
F2.5
sg16
I1
sg17
(lp831
sg19
(lp832
I1
aI11
asg21
F0.50437712669372559
sg22
(lp833
g25
ag24
asg26
I1
sg27
I1
sg28
I1
sg29
I1
sg30
F409.15596199035645
sg31
(F0.10000000000000001
F0.88900000000000001
tp834
sg33
g34
sg35
I01
sa(dp835
g8
(I0
I1
tp836
sg10
(lp837
sg12
I116
sg13
g14
sg15
F2.5
sg16
I1
sg17
(lp838
sg19
(lp839
I1
aI11
asg21
F0.48878717422485352
sg22
(lp840
g25
ag24
asg26
I1
sg27
I1
sg28
I1
sg29
I1
sg30
F412.72662115097046
sg31
(F0.10000000000000001
F0.88900000000000001
tp841
sg33
g34
sg35
I01
sa(dp842
g8
(I1
I1
tp843
sg10
(lp844
sg12
I117
sg13
g14
sg15
F2.5
sg16
I1
sg17
(lp845
sg19
(lp846
I11
aI6
asg21
F0.57508683204650879
sg22
(lp847
g24
ag56
asg26
I1
sg27
I1
sg28
I0
sg29
I0
sg30
F416.2972891330719
sg31
(F0.88900000000000001
F0.44900000000000001
tp848
sg33
g34
sg35
I01
sa(dp849
g8
(I0
I0
tp850
sg10
(lp851
sg12
I118
sg13
g14
sg15
F2.5
sg16
I0
sg17
(lp852
sg19
(lp853
I1
aI11
asg21
F0.41275787353515625
sg22
(lp854
g25
ag24
asg26
I1
sg27
I1
sg28
I1
sg29
I1
sg30
F419.86782002449036
sg31
(F0.10000000000000001
F0.88900000000000001
tp855
sg33
g34
sg35
I01
sa(dp856
g8
(I1
I0
tp857
sg10
(lp858
sg12
I119
sg13
g14
sg15
F2.5
sg16
I1
sg17
(lp859
sg19
(lp860
I11
aI6
asg21
F0.40845894813537598
sg22
(lp861
g24
ag56
asg26
I1
sg27
I1
sg28
I0
sg29
I0
sg30
F423.43806004524231
sg31
(F0.88900000000000001
F0.44900000000000001
tp862
sg33
g34
sg35
I01
sa(dp863
g8
(I0
I1
tp864
sg10
(lp865
sg12
I120
sg13
g14
sg15
F2.5
sg16
I1
sg17
(lp866
sg19
(lp867
I6
aI11
asg21
F0.41551685333251953
sg22
(lp868
g56
ag24
asg26
I1
sg27
I1
sg28
I1
sg29
I1
sg30
F427.00870800018311
sg31
(F0.44900000000000001
F0.88900000000000001
tp869
sg33
g34
sg35
I01
sa(dp870
g8
(I1
I1
tp871
sg10
(lp872
sg12
I121
sg13
g14
sg15
F2.5
sg16
I1
sg17
(lp873
sg19
(lp874
I7
aI2
asg21
F1.2104110717773438
sg22
(lp875
S'images/6.png'
p876
aS'images/2.png'
p877
asg26
I0
sg27
I1
sg28
I0
sg29
I0
sg30
F430.57924509048462
sg31
(F0.44900000000000001
F0.111
tp878
sg33
(I2
I7
I12
tp879
sg35
I01
sa(dp880
g8
(I0
I0
tp881
sg10
(lp882
sg12
I122
sg13
g14
sg15
F2.5
sg16
I0
sg17
(lp883
sg19
(lp884
I12
aI2
asg21
F0.63201689720153809
sg22
(lp885
S'images/13.png'
p886
ag877
asg26
I0
sg27
I1
sg28
I0
sg29
I0
sg30
F434.1495840549469
sg31
(F0.89600000000000002
F0.111
tp887
sg33
g879
sg35
I01
sa(dp888
g8
(I0
I1
tp889
sg10
(lp890
sg12
I123
sg13
g14
sg15
F2.5
sg16
I1
sg17
(lp891
sg19
(lp892
I2
aI7
asg21
F1.3029649257659912
sg22
(lp893
g877
ag876
asg26
I0
sg27
I1
sg28
I1
sg29
I1
sg30
F437.71996212005615
sg31
(F0.111
F0.44900000000000001
tp894
sg33
g879
sg35
I01
sa(dp895
g8
(I1
I1
tp896
sg10
(lp897
sg12
I124
sg13
g14
sg15
F2.5
sg16
I1
sg17
(lp898
sg19
(lp899
I2
aI12
asg21
F1.2203290462493896
sg22
(lp900
g877
ag886
asg26
I0
sg27
I1
sg28
I1
sg29
I0
sg30
F441.29039692878723
sg31
(F0.111
F0.89600000000000002
tp901
sg33
g879
sg35
I00
sa(dp902
g8
(I0
I1
tp903
sg10
(lp904
sg12
I125
sg13
g14
sg15
F2.5
sg16
I0
sg17
(lp905
sg19
(lp906
I7
aI12
asg21
F1.0804038047790527
sg22
(lp907
g876
ag886
asg26
I0
sg27
I1
sg28
I1
sg29
I0
sg30
F444.86099696159363
sg31
(F0.44900000000000001
F0.89600000000000002
tp908
sg33
g879
sg35
I00
sa(dp909
g8
(I1
I1
tp910
sg10
(lp911
sg12
I126
sg13
g14
sg15
F2.5
sg16
I1
sg17
(lp912
sg19
(lp913
I2
aI12
asg21
F0.60340619087219238
sg22
(lp914
g877
ag886
asg26
I0
sg27
I1
sg28
I1
sg29
I0
sg30
F448.43171000480652
sg31
(F0.111
F0.89600000000000002
tp915
sg33
g879
sg35
I00
sa(dp916
g8
(I0
I1
tp917
sg10
(lp918
sg12
I127
sg13
g14
sg15
F2.5
sg16
I0
sg17
(lp919
sg19
(lp920
I7
aI12
asg21
F0.8138890266418457
sg22
(lp921
g876
ag886
asg26
I0
sg27
I1
sg28
I1
sg29
I0
sg30
F452.0027379989624
sg31
(F0.44900000000000001
F0.89600000000000002
tp922
sg33
g879
sg35
I00
sa(dp923
g8
(I0
I0
tp924
sg10
(lp925
sg12
I128
sg13
g14
sg15
F2.5
sg16
I0
sg17
(lp926
sg19
(lp927
I7
aI2
asg21
F1.2033560276031494
sg22
(lp928
g876
ag877
asg26
I0
sg27
I1
sg28
I0
sg29
I1
sg30
F455.57324814796448
sg31
(F0.44900000000000001
F0.111
tp929
sg33
g879
sg35
I00
sa(dp930
g8
(I1
I0
tp931
sg10
(lp932
sg12
I129
sg13
g14
sg15
F2.5
sg16
I0
sg17
(lp933
sg19
(lp934
I12
aI2
asg21
F1.3790841102600098
sg22
(lp935
g886
ag877
asg26
I0
sg27
I1
sg28
I0
sg29
I1
sg30
F459.14303398132324
sg31
(F0.89600000000000002
F0.111
tp936
sg33
g879
sg35
I00
sa(dp937
g8
(I0
I1
tp938
sg10
(lp939
sg12
I130
sg13
g14
sg15
F2.5
sg16
I0
sg17
(lp940
sg19
(lp941
I2
aI12
asg21
F0.55390191078186035
sg22
(lp942
g877
ag886
asg26
I0
sg27
I1
sg28
I1
sg29
I0
sg30
F462.7136869430542
sg31
(F0.111
F0.89600000000000002
tp943
sg33
g879
sg35
I00
sa(dp944
g8
(I0
I1
tp945
sg10
(lp946
sg12
I131
sg13
g14
sg15
F2.5
sg16
I1
sg17
(lp947
sg19
(lp948
I12
aI7
asg21
F0.59395408630371094
sg22
(lp949
g886
ag876
asg26
I1
sg27
I1
sg28
I0
sg29
I1
sg30
F466.2843611240387
sg31
(F0.89600000000000002
F0.44900000000000001
tp950
sg33
g879
sg35
I00
sa(dp951
g8
(I0
I0
tp952
sg10
(lp953
sg12
I132
sg13
g14
sg15
F2.5
sg16
I0
sg17
(lp954
sg19
(lp955
I12
aI7
asg21
F0.71323990821838379
sg22
(lp956
g886
ag876
asg26
I1
sg27
I1
sg28
I0
sg29
I1
sg30
F469.85453605651855
sg31
(F0.89600000000000002
F0.44900000000000001
tp957
sg33
g879
sg35
I00
sa(dp958
g8
(I0
I0
tp959
sg10
(lp960
sg12
I133
sg13
g14
sg15
F2.5
sg16
I0
sg17
(lp961
sg19
(lp962
I7
aI12
asg21
F0.57444000244140625
sg22
(lp963
g876
ag886
asg26
I1
sg27
I1
sg28
I1
sg29
I0
sg30
F473.42516303062439
sg31
(F0.44900000000000001
F0.89600000000000002
tp964
sg33
g879
sg35
I00
sa(dp965
g8
(I1
I1
tp966
sg10
(lp967
sg12
I134
sg13
g14
sg15
F2.5
sg16
I1
sg17
(lp968
sg19
(lp969
I12
aI7
asg21
F0.9975590705871582
sg22
(lp970
g886
ag876
asg26
I1
sg27
I1
sg28
I0
sg29
I1
sg30
F476.99561595916748
sg31
(F0.89600000000000002
F0.44900000000000001
tp971
sg33
g879
sg35
I00
sa(dp972
g8
(I0
I0
tp973
sg10
(lp974
sg12
I135
sg13
g14
sg15
F2.5
sg16
I0
sg17
(lp975
sg19
(lp976
I2
aI7
asg21
F1.2192409038543701
sg22
(lp977
g877
ag876
asg26
I1
sg27
I1
sg28
I1
sg29
I1
sg30
F480.56611704826355
sg31
(F0.111
F0.44900000000000001
tp978
sg33
g879
sg35
I01
sa(dp979
g8
(I1
I0
tp980
sg10
(lp981
sg12
I136
sg13
g14
sg15
F2.5
sg16
I0
sg17
(lp982
sg19
(lp983
I7
aI2
asg21
F1.4390029907226562
sg22
(lp984
g876
ag877
asg26
I1
sg27
I1
sg28
I0
sg29
I1
sg30
F484.13665509223938
sg31
(F0.44900000000000001
F0.111
tp985
sg33
g879
sg35
I00
sa(dp986
g8
(I1
I0
tp987
sg10
(lp988
sg12
I137
sg13
g14
sg15
F2.5
sg16
I1
sg17
(lp989
sg19
(lp990
I2
aI7
asg21
F2.1668210029602051
sg22
(lp991
g877
ag876
asg26
I1
sg27
I1
sg28
I1
sg29
I0
sg30
F487.70721316337585
sg31
(F0.111
F0.44900000000000001
tp992
sg33
g879
sg35
I00
sa(dp993
g8
(I0
I1
tp994
sg10
(lp995
sg12
I138
sg13
g14
sg15
F2.5
sg16
I0
sg17
(lp996
sg19
(lp997
I2
aI12
asg21
F1.2732529640197754
sg22
(lp998
g877
ag886
asg26
I1
sg27
I1
sg28
I1
sg29
I0
sg30
F491.27766704559326
sg31
(F0.111
F0.89600000000000002
tp999
sg33
g879
sg35
I00
sa(dp1000
g8
(I1
I1
tp1001
sg10
(lp1002
sg12
I139
sg13
g14
sg15
F2.5
sg16
I1
sg17
(lp1003
sg19
(lp1004
I2
aI7
asg21
F0.74058699607849121
sg22
(lp1005
g877
ag876
asg26
I1
sg27
I1
sg28
I1
sg29
I0
sg30
F494.84793210029602
sg31
(F0.111
F0.44900000000000001
tp1006
sg33
g879
sg35
I00
sa(dp1007
g8
(I1
I1
tp1008
sg10
(lp1009
sg12
I140
sg13
g14
sg15
F2.5
sg16
I1
sg17
(lp1010
sg19
(lp1011
I7
aI2
asg21
F1.5690929889678955
sg22
(lp1012
g876
ag877
asg26
I1
sg27
I1
sg28
I0
sg29
I0
sg30
F498.41925001144409
sg31
(F0.44900000000000001
F0.111
tp1013
sg33
g879
sg35
I01
sa(dp1014
g8
(I0
I1
tp1015
sg10
(lp1016
sg12
I141
sg13
g14
sg15
F2.5
sg16
I0
sg17
(lp1017
sg19
(lp1018
I7
aI12
asg21
F1.5870499610900879
sg22
(lp1019
g876
ag886
asg26
I1
sg27
I1
sg28
I1
sg29
I0
sg30
F501.98970293998718
sg31
(F0.44900000000000001
F0.89600000000000002
tp1020
sg33
g879
sg35
I00
sa(dp1021
g8
(I1
I0
tp1022
sg10
(lp1023
sg12
I142
sg13
g14
sg15
F2.5
sg16
I1
sg17
(lp1024
sg19
(lp1025
I7
aI2
asg21
F0.72252202033996582
sg22
(lp1026
g876
ag877
asg26
I1
sg27
I1
sg28
I0
sg29
I0
sg30
F505.60976696014404
sg31
(F0.44900000000000001
F0.111
tp1027
sg33
g879
sg35
I01
sa(dp1028
g8
(I1
I1
tp1029
sg10
(lp1030
sg12
I143
sg13
g14
sg15
F2.5
sg16
I1
sg17
(lp1031
sg19
(lp1032
I7
aI12
asg21
F1.1123731136322021
sg22
(lp1033
g876
ag886
asg26
I1
sg27
I1
sg28
I1
sg29
I1
sg30
F509.18029403686523
sg31
(F0.44900000000000001
F0.89600000000000002
tp1034
sg33
g879
sg35
I01
sa(dp1035
g8
(I0
I1
tp1036
sg10
(lp1037
sg12
I144
sg13
g14
sg15
F2.5
sg16
I1
sg17
(lp1038
sg19
(lp1039
I2
aI12
asg21
F1.4572250843048096
sg22
(lp1040
g877
ag886
asg26
I1
sg27
I1
sg28
I1
sg29
I1
sg30
F512.75071811676025
sg31
(F0.111
F0.89600000000000002
tp1041
sg33
g879
sg35
I01
sa(dp1042
g8
(I1
I0
tp1043
sg10
(lp1044
sg12
I145
sg13
g14
sg15
F2.5
sg16
I0
sg17
(lp1045
sg19
(lp1046
I7
aI12
asg21
F1.4304640293121338
sg22
(lp1047
g876
ag886
asg26
I1
sg27
I1
sg28
I1
sg29
I1
sg30
F516.32163906097412
sg31
(F0.44900000000000001
F0.89600000000000002
tp1048
sg33
g879
sg35
I01
sa(dp1049
g8
(I1
I0
tp1050
sg10
(lp1051
sg12
I146
sg13
g14
sg15
F2.5
sg16
I1
sg17
(lp1052
sg19
(lp1053
I12
aI7
asg21
F1.8867809772491455
sg22
(lp1054
g886
ag876
asg26
I1
sg27
I1
sg28
I0
sg29
I0
sg30
F519.89170694351196
sg31
(F0.89600000000000002
F0.44900000000000001
tp1055
sg33
g879
sg35
I01
sa(dp1056
g8
(I1
I0
tp1057
sg10
(lp1058
sg12
I147
sg13
g14
sg15
F2.5
sg16
I1
sg17
(lp1059
sg19
(lp1060
I12
aI2
asg21
F1.5338320732116699
sg22
(lp1061
g886
ag877
asg26
I1
sg27
I1
sg28
I0
sg29
I0
sg30
F523.46249103546143
sg31
(F0.89600000000000002
F0.111
tp1062
sg33
g879
sg35
I01
sa(dp1063
g8
(I0
I0
tp1064
sg10
(lp1065
sg12
I148
sg13
g14
sg15
F2.5
sg16
I0
sg17
(lp1066
sg19
(lp1067
I2
aI7
asg21
F1.1243338584899902
sg22
(lp1068
g877
ag876
asg26
I1
sg27
I1
sg28
I1
sg29
I0
sg30
F527.03302311897278
sg31
(F0.111
F0.44900000000000001
tp1069
sg33
g879
sg35
I00
sa(dp1070
g8
(I1
I0
tp1071
sg10
(lp1072
sg12
I149
sg13
g14
sg15
F2.5
sg16
I1
sg17
(lp1073
sg19
(lp1074
I7
aI2
asg21
F1.4022619724273682
sg22
(lp1075
g876
ag877
asg26
I1
sg27
I1
sg28
I0
sg29
I0
sg30
F530.60341715812683
sg31
(F0.44900000000000001
F0.111
tp1076
sg33
g879
sg35
I01
sa(dp1077
g8
(I0
I1
tp1078
sg10
(lp1079
sg12
I150
sg13
g14
sg15
F2.5
sg16
I1
sg17
(lp1080
sg19
(lp1081
I2
aI12
asg21
F1.9038381576538086
sg22
(lp1082
g877
ag886
asg26
I1
sg27
I1
sg28
I1
sg29
I1
sg30
F534.17389607429504
sg31
(F0.111
F0.89600000000000002
tp1083
sg33
g879
sg35
I01
sa(dp1084
g8
(I0
I0
tp1085
sg10
(lp1086
sg12
I151
sg13
g14
sg15
F2.5
sg16
I0
sg17
(lp1087
sg19
(lp1088
I7
aI2
asg21
F1.989732027053833
sg22
(lp1089
g876
ag877
asg26
I1
sg27
I1
sg28
I0
sg29
I0
sg30
F537.74411296844482
sg31
(F0.44900000000000001
F0.111
tp1090
sg33
g879
sg35
I01
sa(dp1091
g8
(I1
I1
tp1092
sg10
(lp1093
sg12
I152
sg13
g14
sg15
F2.5
sg16
I1
sg17
(lp1094
sg19
(lp1095
I7
aI12
asg21
F1.6029927730560303
sg22
(lp1096
g876
ag886
asg26
I1
sg27
I1
sg28
I1
sg29
I0
sg30
F541.31472897529602
sg31
(F0.44900000000000001
F0.89600000000000002
tp1097
sg33
g879
sg35
I00
sa(dp1098
g8
(I1
I0
tp1099
sg10
(lp1100
sg12
I153
sg13
g14
sg15
F2.5
sg16
I1
sg17
(lp1101
sg19
(lp1102
I12
aI2
asg21
F1.7337119579315186
sg22
(lp1103
g886
ag877
asg26
I1
sg27
I1
sg28
I0
sg29
I0
sg30
F544.8856201171875
sg31
(F0.89600000000000002
F0.111
tp1104
sg33
g879
sg35
I01
sa(dp1105
g8
(I1
I0
tp1106
sg10
(lp1107
sg12
I154
sg13
g14
sg15
F2.5
sg16
I0
sg17
(lp1108
sg19
(lp1109
I7
aI2
asg21
F1.0545699596405029
sg22
(lp1110
g876
ag877
asg26
I1
sg27
I1
sg28
I0
sg29
I1
sg30
F548.45578503608704
sg31
(F0.44900000000000001
F0.111
tp1111
sg33
g879
sg35
I00
sa(dp1112
g8
(I1
I0
tp1113
sg10
(lp1114
sg12
I155
sg13
g14
sg15
F2.5
sg16
I1
sg17
(lp1115
sg19
(lp1116
I12
aI2
asg21
F1.1854729652404785
sg22
(lp1117
g886
ag877
asg26
I1
sg27
I1
sg28
I0
sg29
I0
sg30
F552.02629995346069
sg31
(F0.89600000000000002
F0.111
tp1118
sg33
g879
sg35
I01
sa(dp1119
g8
(I0
I1
tp1120
sg10
(lp1121
sg12
I156
sg13
g14
sg15
F2.5
sg16
I1
sg17
(lp1122
sg19
(lp1123
I7
aI12
asg21
F1.9459071159362793
sg22
(lp1124
g876
ag886
asg26
I1
sg27
I1
sg28
I1
sg29
I1
sg30
F555.59690499305725
sg31
(F0.44900000000000001
F0.89600000000000002
tp1125
sg33
g879
sg35
I01
sa(dp1126
g8
(I1
I1
tp1127
sg10
(lp1128
sg12
I157
sg13
g14
sg15
F2.5
sg16
I1
sg17
(lp1129
sg19
(lp1130
I12
aI7
asg21
F1.1882579326629639
sg22
(lp1131
g886
ag876
asg26
I1
sg27
I1
sg28
I0
sg29
I0
sg30
F559.1673309803009
sg31
(F0.89600000000000002
F0.44900000000000001
tp1132
sg33
g879
sg35
I01
sa(dp1133
g8
(I0
I1
tp1134
sg10
(lp1135
sg12
I158
sg13
g14
sg15
F2.5
sg16
I1
sg17
(lp1136
sg19
(lp1137
I2
aI12
asg21
F1.6338410377502441
sg22
(lp1138
g877
ag886
asg26
I1
sg27
I1
sg28
I1
sg29
I1
sg30
F562.73822402954102
sg31
(F0.111
F0.89600000000000002
tp1139
sg33
g879
sg35
I01
sa(dp1140
g8
(I0
I1
tp1141
sg10
(lp1142
sg12
I159
sg13
g14
sg15
F2.5
sg16
I1
sg17
(lp1143
sg19
(lp1144
I2
aI12
asg21
F0.79683804512023926
sg22
(lp1145
g877
ag886
asg26
I1
sg27
I1
sg28
I1
sg29
I1
sg30
F566.30841898918152
sg31
(F0.111
F0.89600000000000002
tp1146
sg33
g879
sg35
I01
sa(dp1147
g8
(I0
I1
tp1148
sg10
(lp1149
sg12
I160
sg13
g14
sg15
F2.5
sg16
I1
sg17
(lp1150
sg19
(lp1151
I2
aI12
asg21
F0.46644496917724609
sg22
(lp1152
g877
ag886
asg26
I1
sg27
I1
sg28
I1
sg29
I1
sg30
F569.87898397445679
sg31
(F0.111
F0.89600000000000002
tp1153
sg33
g879
sg35
I01
sa(dp1154
g15
I30
sg13
S'break'
p1155
sa(dp1156
g8
(I1
I0
tp1157
sg10
(lp1158
sg12
I161
sg13
g14
sg15
F2.5
sg16
I0
sg17
(lp1159
sg19
(lp1160
I12
aI2
asg21
F0.56608080863952637
sg22
(lp1161
g886
ag877
asg26
I1
sg27
I1
sg28
I0
sg29
I1
sg30
F613.09420108795166
sg31
(F0.89600000000000002
F0.111
tp1162
sg33
g879
sg35
I00
sa(dp1163
g8
(I1
I1
tp1164
sg10
(lp1165
sg12
I162
sg13
g14
sg15
F2.5
sg16
I1
sg17
(lp1166
sg19
(lp1167
I12
aI7
asg21
F0.60711002349853516
sg22
(lp1168
g886
ag876
asg26
I1
sg27
I1
sg28
I0
sg29
I0
sg30
F616.66241002082825
sg31
(F0.89600000000000002
F0.44900000000000001
tp1169
sg33
g879
sg35
I01
sa(dp1170
g8
(I1
I0
tp1171
sg10
(lp1172
sg12
I163
sg13
g14
sg15
F2.5
sg16
I1
sg17
(lp1173
sg19
(lp1174
I12
aI7
asg21
F0.46819806098937988
sg22
(lp1175
g886
ag876
asg26
I1
sg27
I1
sg28
I0
sg29
I0
sg30
F620.23311996459961
sg31
(F0.89600000000000002
F0.44900000000000001
tp1176
sg33
g879
sg35
I01
sa(dp1177
g8
(I1
I0
tp1178
sg10
(lp1179
sg12
I164
sg13
g14
sg15
F2.5
sg16
I1
sg17
(lp1180
sg19
(lp1181
I12
aI7
asg21
F0.49690699577331543
sg22
(lp1182
g886
ag876
asg26
I1
sg27
I1
sg28
I0
sg29
I0
sg30
F623.80383801460266
sg31
(F0.89600000000000002
F0.44900000000000001
tp1183
sg33
g879
sg35
I01
sa(dp1184
g8
(I0
I1
tp1185
sg10
(lp1186
sg12
I165
sg13
g14
sg15
F2.5
sg16
I0
sg17
(lp1187
sg19
(lp1188
I12
aI7
asg21
F0.48177099227905273
sg22
(lp1189
g886
ag876
asg26
I1
sg27
I1
sg28
I0
sg29
I0
sg30
F627.37416911125183
sg31
(F0.89600000000000002
F0.44900000000000001
tp1190
sg33
g879
sg35
I01
sa(dp1191
g8
(I1
I1
tp1192
sg10
(lp1193
sg12
I166
sg13
g14
sg15
F2.5
sg16
I1
sg17
(lp1194
sg19
(lp1195
I12
aI7
asg21
F0.65772104263305664
sg22
(lp1196
g886
ag876
asg26
I1
sg27
I1
sg28
I0
sg29
I0
sg30
F630.94453811645508
sg31
(F0.89600000000000002
F0.44900000000000001
tp1197
sg33
g879
sg35
I01
sa(dp1198
g8
(I0
I0
tp1199
sg10
(lp1200
sg12
I167
sg13
g14
sg15
F2.5
sg16
I0
sg17
(lp1201
sg19
(lp1202
I7
aI2
asg21
F1.4187438488006592
sg22
(lp1203
g876
ag877
asg26
I1
sg27
I1
sg28
I0
sg29
I1
sg30
F634.51549816131592
sg31
(F0.44900000000000001
F0.111
tp1204
sg33
g879
sg35
I00
sa(dp1205
g8
(I0
I0
tp1206
sg10
(lp1207
sg12
I168
sg13
g14
sg15
F2.5
sg16
I0
sg17
(lp1208
sg19
(lp1209
I7
aI12
asg21
F0.68276596069335938
sg22
(lp1210
g876
ag886
asg26
I1
sg27
I1
sg28
I1
sg29
I1
sg30
F638.08556795120239
sg31
(F0.44900000000000001
F0.89600000000000002
tp1211
sg33
g879
sg35
I01
sa(dp1212
g8
(I0
I0
tp1213
sg10
(lp1214
sg12
I169
sg13
g14
sg15
F2.5
sg16
I0
sg17
(lp1215
sg19
(lp1216
I7
aI2
asg21
F0.99409008026123047
sg22
(lp1217
g876
ag877
asg26
I1
sg27
I1
sg28
I0
sg29
I0
sg30
F641.65609502792358
sg31
(F0.44900000000000001
F0.111
tp1218
sg33
g879
sg35
I01
sa(dp1219
g8
(I1
I1
tp1220
sg10
(lp1221
sg12
I170
sg13
g14
sg15
F2.5
sg16
I1
sg17
(lp1222
sg19
(lp1223
I12
aI2
asg21
F0.84345197677612305
sg22
(lp1224
g886
ag877
asg26
I1
sg27
I1
sg28
I0
sg29
I0
sg30
F645.22664093971252
sg31
(F0.89600000000000002
F0.111
tp1225
sg33
g879
sg35
I01
sa(dp1226
g8
(I0
I0
tp1227
sg10
(lp1228
sg12
I171
sg13
g14
sg15
F2.5
sg16
I0
sg17
(lp1229
sg19
(lp1230
I7
aI2
asg21
F1.5927319526672363
sg22
(lp1231
g876
ag877
asg26
I1
sg27
I1
sg28
I0
sg29
I0
sg30
F648.79730415344238
sg31
(F0.44900000000000001
F0.111
tp1232
sg33
g879
sg35
I01
sa(dp1233
g8
(I0
I0
tp1234
sg10
(lp1235
sg12
I172
sg13
g14
sg15
F2.5
sg16
I0
sg17
(lp1236
sg19
(lp1237
I2
aI7
asg21
F1.7575559616088867
sg22
(lp1238
g877
ag876
asg26
I1
sg27
I1
sg28
I1
sg29
I0
sg30
F652.36735200881958
sg31
(F0.111
F0.44900000000000001
tp1239
sg33
g879
sg35
I00
sa(dp1240
g8
(I0
I1
tp1241
sg10
(lp1242
sg12
I173
sg13
g14
sg15
F2.5
sg16
I1
sg17
(lp1243
sg19
(lp1244
I2
aI12
asg21
F0.74080085754394531
sg22
(lp1245
g877
ag886
asg26
I1
sg27
I1
sg28
I1
sg29
I1
sg30
F655.93775415420532
sg31
(F0.111
F0.89600000000000002
tp1246
sg33
g879
sg35
I01
sa(dp1247
g8
(I1
I0
tp1248
sg10
(lp1249
sg12
I174
sg13
g14
sg15
F2.5
sg16
I1
sg17
(lp1250
sg19
(lp1251
I12
aI7
asg21
F1.0176408290863037
sg22
(lp1252
g886
ag876
asg26
I1
sg27
I1
sg28
I0
sg29
I0
sg30
F659.50852012634277
sg31
(F0.89600000000000002
F0.44900000000000001
tp1253
sg33
g879
sg35
I01
sa(dp1254
g8
(I0
I1
tp1255
sg10
(lp1256
sg12
I175
sg13
g14
sg15
F2.5
sg16
I1
sg17
(lp1257
sg19
(lp1258
I2
aI7
asg21
F0.74336504936218262
sg22
(lp1259
g877
ag876
asg26
I1
sg27
I1
sg28
I1
sg29
I1
sg30
F663.07902503013611
sg31
(F0.111
F0.44900000000000001
tp1260
sg33
g879
sg35
I01
sa(dp1261
g8
(I0
I1
tp1262
sg10
(lp1263
sg12
I176
sg13
g14
sg15
F2.5
sg16
I1
sg17
(lp1264
sg19
(lp1265
I2
aI7
asg21
F0.69387698173522949
sg22
(lp1266
g877
ag876
asg26
I1
sg27
I1
sg28
I1
sg29
I1
sg30
F666.64971208572388
sg31
(F0.111
F0.44900000000000001
tp1267
sg33
g879
sg35
I01
sa(dp1268
g8
(I1
I1
tp1269
sg10
(lp1270
sg12
I177
sg13
g14
sg15
F2.5
sg16
I1
sg17
(lp1271
sg19
(lp1272
I7
aI12
asg21
F0.98258209228515625
sg22
(lp1273
g876
ag886
asg26
I1
sg27
I1
sg28
I1
sg29
I1
sg30
F670.2202889919281
sg31
(F0.44900000000000001
F0.89600000000000002
tp1274
sg33
g879
sg35
I01
sa(dp1275
g8
(I1
I0
tp1276
sg10
(lp1277
sg12
I178
sg13
g14
sg15
F2.5
sg16
I1
sg17
(lp1278
sg19
(lp1279
I12
aI7
asg21
F1.1130721569061279
sg22
(lp1280
g886
ag876
asg26
I1
sg27
I1
sg28
I0
sg29
I0
sg30
F673.79106211662292
sg31
(F0.89600000000000002
F0.44900000000000001
tp1281
sg33
g879
sg35
I01
sa(dp1282
g8
(I0
I0
tp1283
sg10
(lp1284
sg12
I179
sg13
g14
sg15
F2.5
sg16
I0
sg17
(lp1285
sg19
(lp1286
I2
aI7
asg21
F0.65866208076477051
sg22
(lp1287
g877
ag876
asg26
I1
sg27
I1
sg28
I1
sg29
I1
sg30
F677.3612699508667
sg31
(F0.111
F0.44900000000000001
tp1288
sg33
g879
sg35
I01
sa(dp1289
g8
(I1
I1
tp1290
sg10
(lp1291
sg12
I180
sg13
g14
sg15
F2.5
sg16
I1
sg17
(lp1292
sg19
(lp1293
I7
aI12
asg21
F0.67720198631286621
sg22
(lp1294
g876
ag886
asg26
I1
sg27
I1
sg28
I1
sg29
I1
sg30
F680.93170309066772
sg31
(F0.44900000000000001
F0.89600000000000002
tp1295
sg33
g879
sg35
I01
sa(dp1296
g8
(I1
I1
tp1297
sg10
(lp1298
sg12
I181
sg13
g14
sg15
F2.5
sg16
I1
sg17
(lp1299
sg19
(lp1300
I7
aI2
asg21
F1.6293799877166748
sg22
(lp1301
g876
ag877
asg26
I1
sg27
I1
sg28
I0
sg29
I1
sg30
F684.5025520324707
sg31
(F0.44900000000000001
F0.111
tp1302
sg33
g879
sg35
I00
sa(dp1303
g8
(I0
I1
tp1304
sg10
(lp1305
sg12
I182
sg13
g14
sg15
F2.5
sg16
I1
sg17
(lp1306
sg19
(lp1307
I7
aI12
asg21
F0.62418293952941895
sg22
(lp1308
g876
ag886
asg26
I1
sg27
I1
sg28
I1
sg29
I1
sg30
F688.07262301445007
sg31
(F0.44900000000000001
F0.89600000000000002
tp1309
sg33
g879
sg35
I01
sa(dp1310
g8
(I1
I0
tp1311
sg10
(lp1312
sg12
I183
sg13
g14
sg15
F2.5
sg16
I1
sg17
(lp1313
sg19
(lp1314
I12
aI2
asg21
F1.0924670696258545
sg22
(lp1315
g886
ag877
asg26
I1
sg27
I1
sg28
I0
sg29
I0
sg30
F691.64310312271118
sg31
(F0.89600000000000002
F0.111
tp1316
sg33
g879
sg35
I01
sa(dp1317
g8
(I1
I0
tp1318
sg10
(lp1319
sg12
I184
sg13
g14
sg15
F2.5
sg16
I1
sg17
(lp1320
sg19
(lp1321
I12
aI2
asg21
F0.75008296966552734
sg22
(lp1322
g886
ag877
asg26
I1
sg27
I1
sg28
I0
sg29
I0
sg30
F695.21449303627014
sg31
(F0.89600000000000002
F0.111
tp1323
sg33
g879
sg35
I01
sa(dp1324
g8
(I0
I1
tp1325
sg10
(lp1326
sg12
I185
sg13
g14
sg15
F2.5
sg16
I1
sg17
(lp1327
sg19
(lp1328
I2
aI12
asg21
F0.62228608131408691
sg22
(lp1329
g877
ag886
asg26
I1
sg27
I1
sg28
I1
sg29
I1
sg30
F698.78425192832947
sg31
(F0.111
F0.89600000000000002
tp1330
sg33
g879
sg35
I01
sa(dp1331
g8
(I1
I1
tp1332
sg10
(lp1333
sg12
I186
sg13
g14
sg15
F2.5
sg16
I1
sg17
(lp1334
sg19
(lp1335
I12
aI7
asg21
F0.70842599868774414
sg22
(lp1336
g886
ag876
asg26
I1
sg27
I1
sg28
I0
sg29
I0
sg30
F702.35468697547913
sg31
(F0.89600000000000002
F0.44900000000000001
tp1337
sg33
g879
sg35
I01
sa(dp1338
g8
(I1
I0
tp1339
sg10
(lp1340
sg12
I187
sg13
g14
sg15
F2.5
sg16
I0
sg17
(lp1341
sg19
(lp1342
I2
aI12
asg21
F0.51241612434387207
sg22
(lp1343
g877
ag886
asg26
I1
sg27
I1
sg28
I1
sg29
I1
sg30
F705.92539405822754
sg31
(F0.111
F0.89600000000000002
tp1344
sg33
g879
sg35
I01
sa(dp1345
g8
(I1
I1
tp1346
sg10
(lp1347
sg12
I188
sg13
g14
sg15
F2.5
sg16
I1
sg17
(lp1348
sg19
(lp1349
I7
aI12
asg21
F0.56453299522399902
sg22
(lp1350
g876
ag886
asg26
I1
sg27
I1
sg28
I1
sg29
I1
sg30
F709.49571108818054
sg31
(F0.44900000000000001
F0.89600000000000002
tp1351
sg33
g879
sg35
I01
sa(dp1352
g8
(I1
I1
tp1353
sg10
(lp1354
sg12
I189
sg13
g14
sg15
F2.5
sg16
I1
sg17
(lp1355
sg19
(lp1356
I12
aI2
asg21
F0.68473291397094727
sg22
(lp1357
g886
ag877
asg26
I1
sg27
I1
sg28
I0
sg29
I0
sg30
F713.06603908538818
sg31
(F0.89600000000000002
F0.111
tp1358
sg33
g879
sg35
I01
sa(dp1359
g8
(I1
I0
tp1360
sg10
(lp1361
sg12
I190
sg13
g14
sg15
F2.5
sg16
I1
sg17
(lp1362
sg19
(lp1363
I12
aI2
asg21
F0.74754595756530762
sg22
(lp1364
g886
ag877
asg26
I1
sg27
I1
sg28
I0
sg29
I0
sg30
F716.63647508621216
sg31
(F0.89600000000000002
F0.111
tp1365
sg33
g879
sg35
I01
sa(dp1366
g8
(I0
I0
tp1367
sg10
(lp1368
sg12
I191
sg13
g14
sg15
F2.5
sg16
I0
sg17
(lp1369
sg19
(lp1370
I2
aI7
asg21
F1.2721641063690186
sg22
(lp1371
g877
ag876
asg26
I1
sg27
I1
sg28
I1
sg29
I1
sg30
F720.20714116096497
sg31
(F0.111
F0.44900000000000001
tp1372
sg33
g879
sg35
I01
sa(dp1373
g8
(I0
I1
tp1374
sg10
(lp1375
sg12
I192
sg13
g14
sg15
F2.5
sg16
I0
sg17
(lp1376
sg19
(lp1377
I2
aI7
asg21
F1.0987429618835449
sg22
(lp1378
g877
ag876
asg26
I1
sg27
I1
sg28
I1
sg29
I0
sg30
F723.77756714820862
sg31
(F0.111
F0.44900000000000001
tp1379
sg33
g879
sg35
I00
sa(dp1380
g8
(I1
I1
tp1381
sg10
(lp1382
sg12
I193
sg13
g14
sg15
F2.5
sg16
I1
sg17
(lp1383
sg19
(lp1384
I7
aI12
asg21
F0.66757297515869141
sg22
(lp1385
g876
ag886
asg26
I1
sg27
I1
sg28
I1
sg29
I1
sg30
F727.34890913963318
sg31
(F0.44900000000000001
F0.89600000000000002
tp1386
sg33
g879
sg35
I01
sa(dp1387
g8
(I1
I0
tp1388
sg10
(lp1389
sg12
I194
sg13
g14
sg15
F2.5
sg16
I0
sg17
(lp1390
sg19
(lp1391
I7
aI12
asg21
F0.57310795783996582
sg22
(lp1392
g876
ag886
asg26
I1
sg27
I1
sg28
I1
sg29
I1
sg30
F730.91890597343445
sg31
(F0.44900000000000001
F0.89600000000000002
tp1393
sg33
g879
sg35
I01
sa(dp1394
g8
(I1
I0
tp1395
sg10
(lp1396
sg12
I195
sg13
g14
sg15
F2.5
sg16
I1
sg17
(lp1397
sg19
(lp1398
I12
aI7
asg21
F0.88359689712524414
sg22
(lp1399
g886
ag876
asg26
I1
sg27
I1
sg28
I0
sg29
I0
sg30
F734.48945498466492
sg31
(F0.89600000000000002
F0.44900000000000001
tp1400
sg33
g879
sg35
I01
sa(dp1401
g8
(I1
I1
tp1402
sg10
(lp1403
sg12
I196
sg13
g14
sg15
F2.5
sg16
I1
sg17
(lp1404
sg19
(lp1405
I2
aI12
asg21
F0.74467992782592773
sg22
(lp1406
g877
ag886
asg26
I1
sg27
I1
sg28
I1
sg29
I1
sg30
F738.0600860118866
sg31
(F0.111
F0.89600000000000002
tp1407
sg33
g879
sg35
I01
sa(dp1408
g8
(I0
I1
tp1409
sg10
(lp1410
sg12
I197
sg13
g14
sg15
F2.5
sg16
I0
sg17
(lp1411
sg19
(lp1412
I2
aI7
asg21
F1.3024730682373047
sg22
(lp1413
g877
ag876
asg26
I1
sg27
I1
sg28
I1
sg29
I0
sg30
F741.63038396835327
sg31
(F0.111
F0.44900000000000001
tp1414
sg33
g879
sg35
I00
sa(dp1415
g8
(I1
I0
tp1416
sg10
(lp1417
sg12
I198
sg13
g14
sg15
F2.5
sg16
I1
sg17
(lp1418
sg19
(lp1419
I7
aI2
asg21
F1.8385100364685059
sg22
(lp1420
g876
ag877
asg26
I1
sg27
I1
sg28
I0
sg29
I0
sg30
F745.20059394836426
sg31
(F0.44900000000000001
F0.111
tp1421
sg33
g879
sg35
I01
sa(dp1422
g8
(I0
I0
tp1423
sg10
(lp1424
sg12
I199
sg13
g14
sg15
F2.5
sg16
I0
sg17
(lp1425
sg19
(lp1426
I12
aI7
asg21
F0.95740890502929688
sg22
(lp1427
g886
ag876
asg26
I1
sg27
I1
sg28
I0
sg29
I0
sg30
F748.77121996879578
sg31
(F0.89600000000000002
F0.44900000000000001
tp1428
sg33
g879
sg35
I01
sa(dp1429
g8
(I1
I0
tp1430
sg10
(lp1431
sg12
I200
sg13
g14
sg15
F2.5
sg16
I1
sg17
(lp1432
sg19
(lp1433
I12
aI2
asg21
F0.59271597862243652
sg22
(lp1434
g886
ag877
asg26
I1
sg27
I1
sg28
I0
sg29
I0
sg30
F752.34195804595947
sg31
(F0.89600000000000002
F0.111
tp1435
sg33
g879
sg35
I01
sa(dp1436
g8
(I0
I0
tp1437
sg10
(lp1438
sg12
I201
sg13
g14
sg15
F2.5
sg16
I0
sg17
(lp1439
sg19
(lp1440
I12
aI7
asg21
F0.64504504203796387
sg22
(lp1441
g886
ag876
asg26
I1
sg27
I1
sg28
I0
sg29
I0
sg30
F755.91309094429016
sg31
(F0.89600000000000002
F0.44900000000000001
tp1442
sg33
g879
sg35
I01
sa(dp1443
g8
(I0
I0
tp1444
sg10
(lp1445
sg12
I202
sg13
g14
sg15
F2.5
sg16
I0
sg17
(lp1446
sg19
(lp1447
I7
aI2
asg21
F1.6869800090789795
sg22
(lp1448
g876
ag877
asg26
I1
sg27
I1
sg28
I0
sg29
I0
sg30
F759.48252415657043
sg31
(F0.44900000000000001
F0.111
tp1449
sg33
g879
sg35
I01
sa(dp1450
g8
(I0
I0
tp1451
sg10
(lp1452
sg12
I203
sg13
g14
sg15
F2.5
sg16
I0
sg17
(lp1453
sg19
(lp1454
I12
aI2
asg21
F0.95121884346008301
sg22
(lp1455
g886
ag877
asg26
I1
sg27
I1
sg28
I0
sg29
I0
sg30
F763.05329203605652
sg31
(F0.89600000000000002
F0.111
tp1456
sg33
g879
sg35
I01
sa(dp1457
g8
(I1
I0
tp1458
sg10
(lp1459
sg12
I204
sg13
g14
sg15
F2.5
sg16
I0
sg17
(lp1460
sg19
(lp1461
I12
aI2
asg21
F0.86802506446838379
sg22
(lp1462
g886
ag877
asg26
I1
sg27
I1
sg28
I0
sg29
I1
sg30
F766.62368011474609
sg31
(F0.89600000000000002
F0.111
tp1463
sg33
g879
sg35
I00
sa(dp1464
g8
(I1
I0
tp1465
sg10
(lp1466
sg12
I205
sg13
g14
sg15
F2.5
sg16
I1
sg17
(lp1467
sg19
(lp1468
I12
aI2
asg21
F0.68406796455383301
sg22
(lp1469
g886
ag877
asg26
I1
sg27
I1
sg28
I0
sg29
I0
sg30
F770.19444298744202
sg31
(F0.89600000000000002
F0.111
tp1470
sg33
g879
sg35
I01
sa(dp1471
g8
(I0
I0
tp1472
sg10
(lp1473
sg12
I206
sg13
g14
sg15
F2.5
sg16
I0
sg17
(lp1474
sg19
(lp1475
I7
aI2
asg21
F0.983428955078125
sg22
(lp1476
g876
ag877
asg26
I1
sg27
I1
sg28
I0
sg29
I1
sg30
F773.76467514038086
sg31
(F0.44900000000000001
F0.111
tp1477
sg33
g879
sg35
I00
sa(dp1478
g8
(I0
I1
tp1479
sg10
(lp1480
sg12
I207
sg13
g14
sg15
F2.5
sg16
I1
sg17
(lp1481
sg19
(lp1482
I2
aI12
asg21
F0.75451016426086426
sg22
(lp1483
g877
ag886
asg26
I1
sg27
I1
sg28
I1
sg29
I1
sg30
F777.33513998985291
sg31
(F0.111
F0.89600000000000002
tp1484
sg33
g879
sg35
I01
sa(dp1485
g8
(I1
I0
tp1486
sg10
(lp1487
sg12
I208
sg13
g14
sg15
F2.5
sg16
I1
sg17
(lp1488
sg19
(lp1489
I12
aI2
asg21
F0.70535492897033691
sg22
(lp1490
g886
ag877
asg26
I1
sg27
I1
sg28
I0
sg29
I0
sg30
F780.90578413009644
sg31
(F0.89600000000000002
F0.111
tp1491
sg33
g879
sg35
I01
sa(dp1492
g8
(I0
I1
tp1493
sg10
(lp1494
sg12
I209
sg13
g14
sg15
F2.5
sg16
I1
sg17
(lp1495
sg19
(lp1496
I2
aI7
asg21
F1.8374981880187988
sg22
(lp1497
g877
ag876
asg26
I1
sg27
I1
sg28
I1
sg29
I1
sg30
F784.47712206840515
sg31
(F0.111
F0.44900000000000001
tp1498
sg33
g879
sg35
I01
sa(dp1499
g8
(I0
I0
tp1500
sg10
(lp1501
sg12
I210
sg13
g14
sg15
F2.5
sg16
I0
sg17
(lp1502
sg19
(lp1503
I2
aI7
asg21
F0.58417081832885742
sg22
(lp1504
g877
ag876
asg26
I1
sg27
I1
sg28
I1
sg29
I1
sg30
F788.04683303833008
sg31
(F0.111
F0.44900000000000001
tp1505
sg33
g879
sg35
I01
sa(dp1506
g8
(I1
I0
tp1507
sg10
(lp1508
sg12
I211
sg13
g14
sg15
F2.5
sg16
I0
sg17
(lp1509
sg19
(lp1510
I7
aI12
asg21
F0.67035698890686035
sg22
(lp1511
g876
ag886
asg26
I1
sg27
I1
sg28
I1
sg29
I1
sg30
F791.61721396446228
sg31
(F0.44900000000000001
F0.89600000000000002
tp1512
sg33
g879
sg35
I01
sa(dp1513
g8
(I0
I1
tp1514
sg10
(lp1515
sg12
I212
sg13
g14
sg15
F2.5
sg16
I1
sg17
(lp1516
sg19
(lp1517
I2
aI12
asg21
F0.57552409172058105
sg22
(lp1518
g877
ag886
asg26
I1
sg27
I1
sg28
I1
sg29
I1
sg30
F795.18792295455933
sg31
(F0.111
F0.89600000000000002
tp1519
sg33
g879
sg35
I01
sa(dp1520
g8
(I0
I1
tp1521
sg10
(lp1522
sg12
I213
sg13
g14
sg15
F2.5
sg16
I1
sg17
(lp1523
sg19
(lp1524
I2
aI12
asg21
F1.2016968727111816
sg22
(lp1525
g877
ag886
asg26
I1
sg27
I1
sg28
I1
sg29
I1
sg30
F798.75858402252197
sg31
(F0.111
F0.89600000000000002
tp1526
sg33
g879
sg35
I01
sa(dp1527
g8
(I0
I0
tp1528
sg10
(lp1529
sg12
I214
sg13
g14
sg15
F2.5
sg16
I0
sg17
(lp1530
sg19
(lp1531
I2
aI12
asg21
F0.49982404708862305
sg22
(lp1532
g877
ag886
asg26
I1
sg27
I1
sg28
I1
sg29
I1
sg30
F802.32871913909912
sg31
(F0.111
F0.89600000000000002
tp1533
sg33
g879
sg35
I01
sa(dp1534
g8
(I0
I0
tp1535
sg10
(lp1536
sg12
I215
sg13
g14
sg15
F2.5
sg16
I0
sg17
(lp1537
sg19
(lp1538
I7
aI2
asg21
F1.0243661403656006
sg22
(lp1539
g876
ag877
asg26
I1
sg27
I1
sg28
I0
sg29
I0
sg30
F805.89940905570984
sg31
(F0.44900000000000001
F0.111
tp1540
sg33
g879
sg35
I01
sa(dp1541
g8
(I0
I1
tp1542
sg10
(lp1543
sg12
I216
sg13
g14
sg15
F2.5
sg16
I1
sg17
(lp1544
sg19
(lp1545
I7
aI12
asg21
F0.51381897926330566
sg22
(lp1546
g876
ag886
asg26
I1
sg27
I1
sg28
I1
sg29
I1
sg30
F809.46994614601135
sg31
(F0.44900000000000001
F0.89600000000000002
tp1547
sg33
g879
sg35
I01
sa(dp1548
g8
(I1
I1
tp1549
sg10
(lp1550
sg12
I217
sg13
g14
sg15
F2.5
sg16
I1
sg17
(lp1551
sg19
(lp1552
I12
aI7
asg21
F0.76872110366821289
sg22
(lp1553
g886
ag876
asg26
I1
sg27
I1
sg28
I0
sg29
I0
sg30
F813.04034209251404
sg31
(F0.89600000000000002
F0.44900000000000001
tp1554
sg33
g879
sg35
I01
sa(dp1555
g8
(I1
I1
tp1556
sg10
(lp1557
sg12
I218
sg13
g14
sg15
F2.5
sg16
I1
sg17
(lp1558
sg19
(lp1559
I7
aI12
asg21
F0.57291793823242188
sg22
(lp1560
g876
ag886
asg26
I1
sg27
I1
sg28
I1
sg29
I1
sg30
F816.61107897758484
sg31
(F0.44900000000000001
F0.89600000000000002
tp1561
sg33
g879
sg35
I01
sa(dp1562
g8
(I0
I1
tp1563
sg10
(lp1564
sg12
I219
sg13
g14
sg15
F2.5
sg16
I1
sg17
(lp1565
sg19
(lp1566
I7
aI12
asg21
F0.47895097732543945
sg22
(lp1567
g876
ag886
asg26
I1
sg27
I1
sg28
I1
sg29
I1
sg30
F820.1819281578064
sg31
(F0.44900000000000001
F0.89600000000000002
tp1568
sg33
g879
sg35
I01
sa(dp1569
g8
(I0
I0
tp1570
sg10
(lp1571
sg12
I220
sg13
g14
sg15
F2.5
sg16
I0
sg17
(lp1572
sg19
(lp1573
I2
aI7
asg21
F1.2957401275634766
sg22
(lp1574
g877
ag876
asg26
I1
sg27
I1
sg28
I1
sg29
I1
sg30
F823.75199913978577
sg31
(F0.111
F0.44900000000000001
tp1575
sg33
g879
sg35
I01
sa(dp1576
g8
(I0
I1
tp1577
sg10
(lp1578
sg12
I221
sg13
g14
sg15
F2.5
sg16
I0
sg17
(lp1579
sg19
(lp1580
I2
aI7
asg21
F1.0215418338775635
sg22
(lp1581
g877
ag876
asg26
I1
sg27
I1
sg28
I1
sg29
I0
sg30
F827.32243013381958
sg31
(F0.111
F0.44900000000000001
tp1582
sg33
g879
sg35
I00
sa(dp1583
g8
(I0
I0
tp1584
sg10
(lp1585
sg12
I222
sg13
g14
sg15
F2.5
sg16
I0
sg17
(lp1586
sg19
(lp1587
I7
aI2
asg21
F1.2199459075927734
sg22
(lp1588
g876
ag877
asg26
I1
sg27
I1
sg28
I0
sg29
I0
sg30
F830.89276313781738
sg31
(F0.44900000000000001
F0.111
tp1589
sg33
g879
sg35
I01
sa(dp1590
g8
(I1
I1
tp1591
sg10
(lp1592
sg12
I223
sg13
g14
sg15
F2.5
sg16
I1
sg17
(lp1593
sg19
(lp1594
I12
aI7
asg21
F0.76568603515625
sg22
(lp1595
g886
ag876
asg26
I1
sg27
I1
sg28
I0
sg29
I0
sg30
F834.46329307556152
sg31
(F0.89600000000000002
F0.44900000000000001
tp1596
sg33
g879
sg35
I01
sa(dp1597
g8
(I1
I1
tp1598
sg10
(lp1599
sg12
I224
sg13
g14
sg15
F2.5
sg16
I1
sg17
(lp1600
sg19
(lp1601
I12
aI2
asg21
F0.6378631591796875
sg22
(lp1602
g886
ag877
asg26
I1
sg27
I1
sg28
I0
sg29
I0
sg30
F838.03424715995789
sg31
(F0.89600000000000002
F0.111
tp1603
sg33
g879
sg35
I01
sa(dp1604
g8
(I1
I0
tp1605
sg10
(lp1606
sg12
I225
sg13
g14
sg15
F2.5
sg16
I1
sg17
(lp1607
sg19
(lp1608
I12
aI2
asg21
F0.52114200592041016
sg22
(lp1609
g886
ag877
asg26
I1
sg27
I1
sg28
I0
sg29
I0
sg30
F841.60453009605408
sg31
(F0.89600000000000002
F0.111
tp1610
sg33
g879
sg35
I01
sa(dp1611
g8
(I0
I0
tp1612
sg10
(lp1613
sg12
I226
sg13
g14
sg15
F2.5
sg16
I0
sg17
(lp1614
sg19
(lp1615
I2
aI7
asg21
F1.0678560733795166
sg22
(lp1616
g877
ag876
asg26
I1
sg27
I1
sg28
I1
sg29
I0
sg30
F845.17505097389221
sg31
(F0.111
F0.44900000000000001
tp1617
sg33
g879
sg35
I00
sa(dp1618
g8
(I1
I0
tp1619
sg10
(lp1620
sg12
I227
sg13
g14
sg15
F2.5
sg16
I1
sg17
(lp1621
sg19
(lp1622
I12
aI7
asg21
F0.54616594314575195
sg22
(lp1623
g886
ag876
asg26
I1
sg27
I1
sg28
I0
sg29
I0
sg30
F848.74552607536316
sg31
(F0.89600000000000002
F0.44900000000000001
tp1624
sg33
g879
sg35
I01
sa(dp1625
g8
(I0
I1
tp1626
sg10
(lp1627
sg12
I228
sg13
g14
sg15
F2.5
sg16
I1
sg17
(lp1628
sg19
(lp1629
I2
aI12
asg21
F0.53081703186035156
sg22
(lp1630
g877
ag886
asg26
I1
sg27
I1
sg28
I1
sg29
I1
sg30
F852.31578707695007
sg31
(F0.111
F0.89600000000000002
tp1631
sg33
g879
sg35
I01
sa(dp1632
g8
(I1
I0
tp1633
sg10
(lp1634
sg12
I229
sg13
g14
sg15
F2.5
sg16
I1
sg17
(lp1635
sg19
(lp1636
I7
aI2
asg21
F1.4377949237823486
sg22
(lp1637
g876
ag877
asg26
I1
sg27
I1
sg28
I0
sg29
I0
sg30
F855.88647603988647
sg31
(F0.44900000000000001
F0.111
tp1638
sg33
g879
sg35
I01
sa(dp1639
g8
(I1
I1
tp1640
sg10
(lp1641
sg12
I230
sg13
g14
sg15
F2.5
sg16
I1
sg17
(lp1642
sg19
(lp1643
I12
aI2
asg21
F0.74779605865478516
sg22
(lp1644
g886
ag877
asg26
I1
sg27
I1
sg28
I0
sg29
I0
sg30
F859.45692205429077
sg31
(F0.89600000000000002
F0.111
tp1645
sg33
g879
sg35
I01
sa(dp1646
g8
(I0
I0
tp1647
sg10
(lp1648
sg12
I231
sg13
g14
sg15
F2.5
sg16
I0
sg17
(lp1649
sg19
(lp1650
I2
aI12
asg21
F1.0018758773803711
sg22
(lp1651
g877
ag886
asg26
I1
sg27
I1
sg28
I1
sg29
I1
sg30
F863.02748107910156
sg31
(F0.111
F0.89600000000000002
tp1652
sg33
g879
sg35
I01
sa(dp1653
g8
(I1
I0
tp1654
sg10
(lp1655
sg12
I232
sg13
g14
sg15
F2.5
sg16
I1
sg17
(lp1656
sg19
(lp1657
I12
aI2
asg21
F0.66025304794311523
sg22
(lp1658
g886
ag877
asg26
I1
sg27
I1
sg28
I0
sg29
I0
sg30
F866.5979311466217
sg31
(F0.89600000000000002
F0.111
tp1659
sg33
g879
sg35
I01
sa(dp1660
g8
(I0
I0
tp1661
sg10
(lp1662
sg12
I233
sg13
g14
sg15
F2.5
sg16
I0
sg17
(lp1663
sg19
(lp1664
I2
aI7
asg21
F1.6461179256439209
sg22
(lp1665
g877
ag876
asg26
I1
sg27
I1
sg28
I1
sg29
I1
sg30
F870.16860294342041
sg31
(F0.111
F0.44900000000000001
tp1666
sg33
g879
sg35
I01
sa(dp1667
g8
(I0
I1
tp1668
sg10
(lp1669
sg12
I234
sg13
g14
sg15
F2.5
sg16
I1
sg17
(lp1670
sg19
(lp1671
I7
aI12
asg21
F1.0791230201721191
sg22
(lp1672
g876
ag886
asg26
I1
sg27
I1
sg28
I1
sg29
I1
sg30
F873.73892498016357
sg31
(F0.44900000000000001
F0.89600000000000002
tp1673
sg33
g879
sg35
I01
sa(dp1674
g8
(I1
I0
tp1675
sg10
(lp1676
sg12
I235
sg13
g14
sg15
F2.5
sg16
I1
sg17
(lp1677
sg19
(lp1678
I7
aI2
asg21
F0.62507390975952148
sg22
(lp1679
g876
ag877
asg26
I1
sg27
I1
sg28
I0
sg29
I0
sg30
F877.30959105491638
sg31
(F0.44900000000000001
F0.111
tp1680
sg33
g879
sg35
I01
sa(dp1681
g8
(I0
I1
tp1682
sg10
(lp1683
sg12
I236
sg13
g14
sg15
F2.5
sg16
I0
sg17
(lp1684
sg19
(lp1685
I2
aI7
asg21
F1.0482680797576904
sg22
(lp1686
g877
ag876
asg26
I1
sg27
I1
sg28
I1
sg29
I0
sg30
F880.88004612922668
sg31
(F0.111
F0.44900000000000001
tp1687
sg33
g879
sg35
I00
sa(dp1688
g8
(I1
I1
tp1689
sg10
(lp1690
sg12
I237
sg13
g14
sg15
F2.5
sg16
I1
sg17
(lp1691
sg19
(lp1692
I7
aI2
asg21
F0.59378695487976074
sg22
(lp1693
g876
ag877
asg26
I1
sg27
I1
sg28
I0
sg29
I0
sg30
F884.4504771232605
sg31
(F0.44900000000000001
F0.111
tp1694
sg33
g879
sg35
I01
sa(dp1695
g8
(I0
I0
tp1696
sg10
(lp1697
sg12
I238
sg13
g14
sg15
F2.5
sg16
I0
sg17
(lp1698
sg19
(lp1699
I2
aI7
asg21
F1.3438100814819336
sg22
(lp1700
g877
ag876
asg26
I1
sg27
I1
sg28
I1
sg29
I1
sg30
F888.02081203460693
sg31
(F0.111
F0.44900000000000001
tp1701
sg33
g879
sg35
I01
sa(dp1702
g8
(I1
I1
tp1703
sg10
(lp1704
sg12
I239
sg13
g14
sg15
F2.5
sg16
I1
sg17
(lp1705
sg19
(lp1706
I12
aI7
asg21
F0.77673792839050293
sg22
(lp1707
g886
ag876
asg26
I1
sg27
I1
sg28
I0
sg29
I0
sg30
F891.59191203117371
sg31
(F0.89600000000000002
F0.44900000000000001
tp1708
sg33
g879
sg35
I01
sa(dp1709
g8
(I0
I1
tp1710
sg10
(lp1711
sg12
I240
sg13
g14
sg15
F2.5
sg16
I1
sg17
(lp1712
sg19
(lp1713
I2
aI12
asg21
F0.93022394180297852
sg22
(lp1714
g877
ag886
asg26
I1
sg27
I1
sg28
I1
sg29
I1
sg30
F895.16190409660339
sg31
(F0.111
F0.89600000000000002
tp1715
sg33
g879
sg35
I01
sa(dp1716
g8
(I1
I1
tp1717
sg10
(lp1718
sg12
I241
sg13
g14
sg15
F2.5
sg16
I1
sg17
(lp1719
sg19
(lp1720
I8
aI13
asg21
F1.2288799285888672
sg22
(lp1721
S'images/11.png'
p1722
aS'images/7.png'
p1723
asg26
I0
sg27
I1
sg28
I1
sg29
I1
sg30
F898.73278307914734
sg31
(F0.44900000000000001
F0.90000000000000002
tp1724
sg33
(I3
I8
I13
tp1725
sg35
I01
sa(dp1726
g8
(I0
I0
tp1727
sg10
(lp1728
sg12
I242
sg13
g14
sg15
F2.5
sg16
I0
sg17
(lp1729
sg19
(lp1730
I13
aI3
asg21
F1.0343120098114014
sg22
(lp1731
g1723
aS'images/3.png'
p1732
asg26
I0
sg27
I1
sg28
I0
sg29
I1
sg30
F902.30362010002136
sg31
(F0.90000000000000002
F0.105
tp1733
sg33
g1725
sg35
I00
sa(dp1734
g8
(I1
I0
tp1735
sg10
(lp1736
sg12
I243
sg13
g14
sg15
F2.5
sg16
I0
sg17
(lp1737
sg19
(lp1738
I13
aI8
asg21
F1.4575037956237793
sg22
(lp1739
g1723
ag1722
asg26
I0
sg27
I1
sg28
I0
sg29
I1
sg30
F905.8739869594574
sg31
(F0.90000000000000002
F0.44900000000000001
tp1740
sg33
g1725
sg35
I00
sa(dp1741
g8
(I1
I0
tp1742
sg10
(lp1743
sg12
I244
sg13
g14
sg15
F2.5
sg16
I0
sg17
(lp1744
sg19
(lp1745
I13
aI8
asg21
F0.48498702049255371
sg22
(lp1746
g1723
ag1722
asg26
I0
sg27
I1
sg28
I0
sg29
I1
sg30
F909.44415712356567
sg31
(F0.90000000000000002
F0.44900000000000001
tp1747
sg33
g1725
sg35
I00
sa(dp1748
g8
(I1
I1
tp1749
sg10
(lp1750
sg12
I245
sg13
g14
sg15
F2.5
sg16
I1
sg17
(lp1751
sg19
(lp1752
I8
aI13
asg21
F1.0550291538238525
sg22
(lp1753
g1722
ag1723
asg26
I0
sg27
I1
sg28
I1
sg29
I0
sg30
F913.0144190788269
sg31
(F0.44900000000000001
F0.90000000000000002
tp1754
sg33
g1725
sg35
I00
sa(dp1755
g8
(I0
I1
tp1756
sg10
(lp1757
sg12
I246
sg13
g14
sg15
F2.5
sg16
I0
sg17
(lp1758
sg19
(lp1759
I8
aI13
asg21
F0.5785820484161377
sg22
(lp1760
g1722
ag1723
asg26
I0
sg27
I1
sg28
I1
sg29
I0
sg30
F916.58504605293274
sg31
(F0.44900000000000001
F0.90000000000000002
tp1761
sg33
g1725
sg35
I00
sa(dp1762
g8
(I1
I0
tp1763
sg10
(lp1764
sg12
I247
sg13
g14
sg15
F2.5
sg16
I0
sg17
(lp1765
sg19
(lp1766
I13
aI3
asg21
F0.74315500259399414
sg22
(lp1767
g1723
ag1732
asg26
I0
sg27
I1
sg28
I0
sg29
I1
sg30
F920.15536904335022
sg31
(F0.90000000000000002
F0.105
tp1768
sg33
g1725
sg35
I00
sa(dp1769
g8
(I1
I0
tp1770
sg10
(lp1771
sg12
I248
sg13
g14
sg15
F2.5
sg16
I0
sg17
(lp1772
sg19
(lp1773
I13
aI3
asg21
F0.54749798774719238
sg22
(lp1774
g1723
ag1732
asg26
I0
sg27
I1
sg28
I0
sg29
I1
sg30
F923.72618508338928
sg31
(F0.90000000000000002
F0.105
tp1775
sg33
g1725
sg35
I00
sa(dp1776
g8
(I1
I1
tp1777
sg10
(lp1778
sg12
I249
sg13
g14
sg15
F2.5
sg16
I1
sg17
(lp1779
sg19
(lp1780
I8
aI13
asg21
F0.77935886383056641
sg22
(lp1781
g1722
ag1723
asg26
I0
sg27
I1
sg28
I1
sg29
I0
sg30
F927.29669594764709
sg31
(F0.44900000000000001
F0.90000000000000002
tp1782
sg33
g1725
sg35
I00
sa(dp1783
g8
(I1
I1
tp1784
sg10
(lp1785
sg12
I250
sg13
g14
sg15
F2.5
sg16
I1
sg17
(lp1786
sg19
(lp1787
I13
aI8
asg21
F0.57283711433410645
sg22
(lp1788
g1723
ag1722
asg26
I0
sg27
I1
sg28
I0
sg29
I1
sg30
F930.86690902709961
sg31
(F0.90000000000000002
F0.44900000000000001
tp1789
sg33
g1725
sg35
I00
sa(dp1790
g8
(I1
I1
tp1791
sg10
(lp1792
sg12
I251
sg13
g14
sg15
F2.5
sg16
I1
sg17
(lp1793
sg19
(lp1794
I8
aI13
asg21
F0.48997902870178223
sg22
(lp1795
g1722
ag1723
asg26
I1
sg27
I1
sg28
I1
sg29
I0
sg30
F934.4373459815979
sg31
(F0.44900000000000001
F0.90000000000000002
tp1796
sg33
g1725
sg35
I00
sa(dp1797
g8
(I1
I0
tp1798
sg10
(lp1799
sg12
I252
sg13
g14
sg15
F2.5
sg16
I0
sg17
(lp1800
sg19
(lp1801
I13
aI8
asg21
F0.69952392578125
sg22
(lp1802
g1723
ag1722
asg26
I1
sg27
I1
sg28
I0
sg29
I1
sg30
F938.0080361366272
sg31
(F0.90000000000000002
F0.44900000000000001
tp1803
sg33
g1725
sg35
I00
sa(dp1804
g8
(I0
I1
tp1805
sg10
(lp1806
sg12
I253
sg13
g14
sg15
F2.5
sg16
I0
sg17
(lp1807
sg19
(lp1808
I3
aI13
asg21
F1.2350361347198486
sg22
(lp1809
g1732
ag1723
asg26
I1
sg27
I1
sg28
I1
sg29
I0
sg30
F941.57853293418884
sg31
(F0.105
F0.90000000000000002
tp1810
sg33
g1725
sg35
I00
sa(dp1811
g8
(I1
I0
tp1812
sg10
(lp1813
sg12
I254
sg13
g14
sg15
F2.5
sg16
I1
sg17
(lp1814
sg19
(lp1815
I13
aI3
asg21
F1.3655619621276855
sg22
(lp1816
g1723
ag1732
asg26
I1
sg27
I1
sg28
I0
sg29
I0
sg30
F945.1489200592041
sg31
(F0.90000000000000002
F0.105
tp1817
sg33
g1725
sg35
I01
sa(dp1818
g8
(I0
I0
tp1819
sg10
(lp1820
sg12
I255
sg13
g14
sg15
F2.5
sg16
I0
sg17
(lp1821
sg19
(lp1822
I13
aI3
asg21
F1.0236308574676514
sg22
(lp1823
g1723
ag1732
asg26
I1
sg27
I1
sg28
I0
sg29
I0
sg30
F948.7201931476593
sg31
(F0.90000000000000002
F0.105
tp1824
sg33
g1725
sg35
I01
sa(dp1825
g8
(I1
I0
tp1826
sg10
(lp1827
sg12
I256
sg13
g14
sg15
F2.5
sg16
I1
sg17
(lp1828
sg19
(lp1829
I13
aI3
asg21
F0.60372185707092285
sg22
(lp1830
g1723
ag1732
asg26
I1
sg27
I1
sg28
I0
sg29
I0
sg30
F952.29022097587585
sg31
(F0.90000000000000002
F0.105
tp1831
sg33
g1725
sg35
I01
sa(dp1832
g8
(I1
I0
tp1833
sg10
(lp1834
sg12
I257
sg13
g14
sg15
F2.5
sg16
I1
sg17
(lp1835
sg19
(lp1836
I3
aI8
asg21
F1.3420279026031494
sg22
(lp1837
g1732
ag1722
asg26
I1
sg27
I1
sg28
I1
sg29
I0
sg30
F955.860671043396
sg31
(F0.105
F0.44900000000000001
tp1838
sg33
g1725
sg35
I00
sa(dp1839
g8
(I1
I0
tp1840
sg10
(lp1841
sg12
I258
sg13
g14
sg15
F2.5
sg16
I0
sg17
(lp1842
sg19
(lp1843
I3
aI13
asg21
F0.77532505989074707
sg22
(lp1844
g1732
ag1723
asg26
I1
sg27
I1
sg28
I1
sg29
I1
sg30
F959.43154215812683
sg31
(F0.105
F0.90000000000000002
tp1845
sg33
g1725
sg35
I01
sa(dp1846
g8
(I0
I0
tp1847
sg10
(lp1848
sg12
I259
sg13
g14
sg15
F2.5
sg16
I0
sg17
(lp1849
sg19
(lp1850
I3
aI8
asg21
F1.0074288845062256
sg22
(lp1851
g1732
ag1722
asg26
I1
sg27
I1
sg28
I1
sg29
I0
sg30
F963.00240206718445
sg31
(F0.105
F0.44900000000000001
tp1852
sg33
g1725
sg35
I00
sa(dp1853
g8
(I0
I0
tp1854
sg10
(lp1855
sg12
I260
sg13
g14
sg15
F2.5
sg16
I0
sg17
(lp1856
sg19
(lp1857
I3
aI8
asg21
F0.72184205055236816
sg22
(lp1858
g1732
ag1722
asg26
I1
sg27
I1
sg28
I1
sg29
I0
sg30
F966.57286596298218
sg31
(F0.105
F0.44900000000000001
tp1859
sg33
g1725
sg35
I00
sa(dp1860
g8
(I1
I1
tp1861
sg10
(lp1862
sg12
I261
sg13
g14
sg15
F2.5
sg16
I1
sg17
(lp1863
sg19
(lp1864
I13
aI8
asg21
F0.71758699417114258
sg22
(lp1865
g1723
ag1722
asg26
I1
sg27
I1
sg28
I0
sg29
I0
sg30
F970.14255094528198
sg31
(F0.90000000000000002
F0.44900000000000001
tp1866
sg33
g1725
sg35
I01
sa(dp1867
g8
(I1
I0
tp1868
sg10
(lp1869
sg12
I262
sg13
g14
sg15
F2.5
sg16
I1
sg17
(lp1870
sg19
(lp1871
I13
aI8
asg21
F1.0849459171295166
sg22
(lp1872
g1723
ag1722
asg26
I1
sg27
I1
sg28
I0
sg29
I0
sg30
F973.71311402320862
sg31
(F0.90000000000000002
F0.44900000000000001
tp1873
sg33
g1725
sg35
I01
sa(dp1874
g8
(I1
I0
tp1875
sg10
(lp1876
sg12
I263
sg13
g14
sg15
F2.5
sg16
I1
sg17
(lp1877
sg19
(lp1878
I13
aI3
asg21
F1.5080599784851074
sg22
(lp1879
g1723
ag1732
asg26
I1
sg27
I1
sg28
I0
sg29
I0
sg30
F977.28363394737244
sg31
(F0.90000000000000002
F0.105
tp1880
sg33
g1725
sg35
I01
sa(dp1881
g8
(I1
I0
tp1882
sg10
(lp1883
sg12
I264
sg13
g14
sg15
F2.5
sg16
I1
sg17
(lp1884
sg19
(lp1885
I13
aI3
asg21
F0.75025701522827148
sg22
(lp1886
g1723
ag1732
asg26
I1
sg27
I1
sg28
I0
sg29
I0
sg30
F980.85413098335266
sg31
(F0.90000000000000002
F0.105
tp1887
sg33
g1725
sg35
I01
sa(dp1888
g8
(I0
I1
tp1889
sg10
(lp1890
sg12
I265
sg13
g14
sg15
F2.5
sg16
I1
sg17
(lp1891
sg19
(lp1892
I3
aI8
asg21
F1.027047872543335
sg22
(lp1893
g1732
ag1722
asg26
I1
sg27
I1
sg28
I1
sg29
I1
sg30
F984.42457008361816
sg31
(F0.105
F0.44900000000000001
tp1894
sg33
g1725
sg35
I01
sa(dp1895
g8
(I0
I0
tp1896
sg10
(lp1897
sg12
I266
sg13
g14
sg15
F2.5
sg16
I0
sg17
(lp1898
sg19
(lp1899
I3
aI8
asg21
F0.8088681697845459
sg22
(lp1900
g1732
ag1722
asg26
I1
sg27
I1
sg28
I1
sg29
I1
sg30
F987.99507904052734
sg31
(F0.105
F0.44900000000000001
tp1901
sg33
g1725
sg35
I01
sa(dp1902
g8
(I0
I1
tp1903
sg10
(lp1904
sg12
I267
sg13
g14
sg15
F2.5
sg16
I1
sg17
(lp1905
sg19
(lp1906
I3
aI8
asg21
F0.92863321304321289
sg22
(lp1907
g1732
ag1722
asg26
I1
sg27
I1
sg28
I1
sg29
I1
sg30
F991.56570816040039
sg31
(F0.105
F0.44900000000000001
tp1908
sg33
g1725
sg35
I01
sa(dp1909
g8
(I1
I1
tp1910
sg10
(lp1911
sg12
I268
sg13
g14
sg15
F2.5
sg16
I1
sg17
(lp1912
sg19
(lp1913
I8
aI13
asg21
F0.65393900871276855
sg22
(lp1914
g1722
ag1723
asg26
I1
sg27
I1
sg28
I1
sg29
I1
sg30
F995.13671398162842
sg31
(F0.44900000000000001
F0.90000000000000002
tp1915
sg33
g1725
sg35
I01
sa(dp1916
g8
(I0
I1
tp1917
sg10
(lp1918
sg12
I269
sg13
g14
sg15
F2.5
sg16
I1
sg17
(lp1919
sg19
(lp1920
I3
aI8
asg21
F0.94266200065612793
sg22
(lp1921
g1732
ag1722
asg26
I1
sg27
I1
sg28
I1
sg29
I1
sg30
F998.70718097686768
sg31
(F0.105
F0.44900000000000001
tp1922
sg33
g1725
sg35
I01
sa(dp1923
g8
(I1
I0
tp1924
sg10
(lp1925
sg12
I270
sg13
g14
sg15
F2.5
sg16
I1
sg17
(lp1926
sg19
(lp1927
I13
aI8
asg21
F1.2194478511810303
sg22
(lp1928
g1723
ag1722
asg26
I1
sg27
I1
sg28
I0
sg29
I0
sg30
F1002.2771351337433
sg31
(F0.90000000000000002
F0.44900000000000001
tp1929
sg33
g1725
sg35
I01
sa(dp1930
g8
(I0
I1
tp1931
sg10
(lp1932
sg12
I271
sg13
g14
sg15
F2.5
sg16
I1
sg17
(lp1933
sg19
(lp1934
I8
aI13
asg21
F0.63029289245605469
sg22
(lp1935
g1722
ag1723
asg26
I1
sg27
I1
sg28
I1
sg29
I1
sg30
F1005.8476741313934
sg31
(F0.44900000000000001
F0.90000000000000002
tp1936
sg33
g1725
sg35
I01
sa(dp1937
g8
(I1
I0
tp1938
sg10
(lp1939
sg12
I272
sg13
g14
sg15
F2.5
sg16
I1
sg17
(lp1940
sg19
(lp1941
I13
aI3
asg21
F0.58089995384216309
sg22
(lp1942
g1723
ag1732
asg26
I1
sg27
I1
sg28
I0
sg29
I0
sg30
F1009.4181411266327
sg31
(F0.90000000000000002
F0.105
tp1943
sg33
g1725
sg35
I01
sa(dp1944
g8
(I0
I0
tp1945
sg10
(lp1946
sg12
I273
sg13
g14
sg15
F2.5
sg16
I0
sg17
(lp1947
sg19
(lp1948
I8
aI3
asg21
F1.1281270980834961
sg22
(lp1949
g1722
ag1732
asg26
I1
sg27
I1
sg28
I0
sg29
I0
sg30
F1012.9887840747833
sg31
(F0.44900000000000001
F0.105
tp1950
sg33
g1725
sg35
I01
sa(dp1951
g8
(I0
I1
tp1952
sg10
(lp1953
sg12
I274
sg13
g14
sg15
F2.5
sg16
I1
sg17
(lp1954
sg19
(lp1955
I3
aI13
asg21
F0.59496903419494629
sg22
(lp1956
g1732
ag1723
asg26
I1
sg27
I1
sg28
I1
sg29
I1
sg30
F1016.559504032135
sg31
(F0.105
F0.90000000000000002
tp1957
sg33
g1725
sg35
I01
sa(dp1958
g8
(I0
I0
tp1959
sg10
(lp1960
sg12
I275
sg13
g14
sg15
F2.5
sg16
I0
sg17
(lp1961
sg19
(lp1962
I3
aI8
asg21
F1.1305921077728271
sg22
(lp1963
g1732
ag1722
asg26
I1
sg27
I1
sg28
I1
sg29
I1
sg30
F1020.1299149990082
sg31
(F0.105
F0.44900000000000001
tp1964
sg33
g1725
sg35
I01
sa(dp1965
g8
(I0
I0
tp1966
sg10
(lp1967
sg12
I276
sg13
g14
sg15
F2.5
sg16
I0
sg17
(lp1968
sg19
(lp1969
I8
aI3
asg21
F0.87906098365783691
sg22
(lp1970
g1722
ag1732
asg26
I1
sg27
I1
sg28
I0
sg29
I0
sg30
F1023.7001881599426
sg31
(F0.44900000000000001
F0.105
tp1971
sg33
g1725
sg35
I01
sa(dp1972
g8
(I0
I0
tp1973
sg10
(lp1974
sg12
I277
sg13
g14
sg15
F2.5
sg16
I0
sg17
(lp1975
sg19
(lp1976
I3
aI8
asg21
F1.1670999526977539
sg22
(lp1977
g1732
ag1722
asg26
I1
sg27
I1
sg28
I1
sg29
I0
sg30
F1027.270702123642
sg31
(F0.105
F0.44900000000000001
tp1978
sg33
g1725
sg35
I00
sa(dp1979
g8
(I0
I1
tp1980
sg10
(lp1981
sg12
I278
sg13
g14
sg15
F2.5
sg16
I1
sg17
(lp1982
sg19
(lp1983
I8
aI13
asg21
F0.51045703887939453
sg22
(lp1984
g1722
ag1723
asg26
I1
sg27
I1
sg28
I1
sg29
I1
sg30
F1030.8413751125336
sg31
(F0.44900000000000001
F0.90000000000000002
tp1985
sg33
g1725
sg35
I01
sa(dp1986
g8
(I0
I0
tp1987
sg10
(lp1988
sg12
I279
sg13
g14
sg15
F2.5
sg16
I0
sg17
(lp1989
sg19
(lp1990
I8
aI3
asg21
F0.58541488647460938
sg22
(lp1991
g1722
ag1732
asg26
I1
sg27
I1
sg28
I0
sg29
I1
sg30
F1034.4116220474243
sg31
(F0.44900000000000001
F0.105
tp1992
sg33
g1725
sg35
I00
sa(dp1993
g8
(I0
I0
tp1994
sg10
(lp1995
sg12
I280
sg13
g14
sg15
F2.5
sg16
I0
sg17
(lp1996
sg19
(lp1997
I3
aI8
asg21
F1.0984680652618408
sg22
(lp1998
g1732
ag1722
asg26
I1
sg27
I1
sg28
I1
sg29
I1
sg30
F1037.982048034668
sg31
(F0.105
F0.44900000000000001
tp1999
sg33
g1725
sg35
I01
sa(dp2000
g8
(I0
I0
tp2001
sg10
(lp2002
sg12
I281
sg13
g14
sg15
F2.5
sg16
I0
sg17
(lp2003
sg19
(lp2004
I8
aI3
asg21
F1.4654850959777832
sg22
(lp2005
g1722
ag1732
asg26
I1
sg27
I1
sg28
I0
sg29
I1
sg30
F1041.5526390075684
sg31
(F0.44900000000000001
F0.105
tp2006
sg33
g1725
sg35
I00
sa(dp2007
g8
(I1
I0
tp2008
sg10
(lp2009
sg12
I282
sg13
g14
sg15
F2.5
sg16
I0
sg17
(lp2010
sg19
(lp2011
I8
aI3
asg21
F1.5965819358825684
sg22
(lp2012
g1722
ag1732
asg26
I1
sg27
I1
sg28
I0
sg29
I1
sg30
F1045.1237590312958
sg31
(F0.44900000000000001
F0.105
tp2013
sg33
g1725
sg35
I00
sa(dp2014
g8
(I1
I0
tp2015
sg10
(lp2016
sg12
I283
sg13
g14
sg15
F2.5
sg16
I1
sg17
(lp2017
sg19
(lp2018
I13
aI3
asg21
F0.57929897308349609
sg22
(lp2019
g1723
ag1732
asg26
I1
sg27
I1
sg28
I0
sg29
I0
sg30
F1048.6937670707703
sg31
(F0.90000000000000002
F0.105
tp2020
sg33
g1725
sg35
I01
sa(dp2021
g8
(I1
I0
tp2022
sg10
(lp2023
sg12
I284
sg13
g14
sg15
F2.5
sg16
I1
sg17
(lp2024
sg19
(lp2025
I13
aI8
asg21
F0.73284602165222168
sg22
(lp2026
g1723
ag1722
asg26
I1
sg27
I1
sg28
I0
sg29
I0
sg30
F1052.2644381523132
sg31
(F0.90000000000000002
F0.44900000000000001
tp2027
sg33
g1725
sg35
I01
sa(dp2028
g8
(I1
I0
tp2029
sg10
(lp2030
sg12
I285
sg13
g14
sg15
F2.5
sg16
I1
sg17
(lp2031
sg19
(lp2032
I13
aI8
asg21
F0.41374516487121582
sg22
(lp2033
g1723
ag1722
asg26
I1
sg27
I1
sg28
I0
sg29
I0
sg30
F1055.8347749710083
sg31
(F0.90000000000000002
F0.44900000000000001
tp2034
sg33
g1725
sg35
I01
sa(dp2035
g8
(I0
I1
tp2036
sg10
(lp2037
sg12
I286
sg13
g14
sg15
F2.5
sg16
I1
sg17
(lp2038
sg19
(lp2039
I8
aI13
asg21
F0.47668910026550293
sg22
(lp2040
g1722
ag1723
asg26
I1
sg27
I1
sg28
I1
sg29
I1
sg30
F1059.4056611061096
sg31
(F0.44900000000000001
F0.90000000000000002
tp2041
sg33
g1725
sg35
I01
sa(dp2042
g8
(I1
I0
tp2043
sg10
(lp2044
sg12
I287
sg13
g14
sg15
F2.5
sg16
I1
sg17
(lp2045
sg19
(lp2046
I13
aI3
asg21
F0.63003706932067871
sg22
(lp2047
g1723
ag1732
asg26
I1
sg27
I1
sg28
I0
sg29
I0
sg30
F1062.9758999347687
sg31
(F0.90000000000000002
F0.105
tp2048
sg33
g1725
sg35
I01
sa(dp2049
g8
(I1
I0
tp2050
sg10
(lp2051
sg12
I288
sg13
g14
sg15
F2.5
sg16
I1
sg17
(lp2052
sg19
(lp2053
I8
aI3
asg21
F1.0305681228637695
sg22
(lp2054
g1722
ag1732
asg26
I1
sg27
I1
sg28
I0
sg29
I0
sg30
F1066.5463449954987
sg31
(F0.44900000000000001
F0.105
tp2055
sg33
g1725
sg35
I01
sa(dp2056
g8
(I1
I0
tp2057
sg10
(lp2058
sg12
I289
sg13
g14
sg15
F2.5
sg16
I1
sg17
(lp2059
sg19
(lp2060
I13
aI3
asg21
F0.75677299499511719
sg22
(lp2061
g1723
ag1732
asg26
I1
sg27
I1
sg28
I0
sg29
I0
sg30
F1070.1169719696045
sg31
(F0.90000000000000002
F0.105
tp2062
sg33
g1725
sg35
I01
sa(dp2063
g8
(I1
I1
tp2064
sg10
(lp2065
sg12
I290
sg13
g14
sg15
F2.5
sg16
I1
sg17
(lp2066
sg19
(lp2067
I3
aI13
asg21
F0.76420307159423828
sg22
(lp2068
g1732
ag1723
asg26
I1
sg27
I1
sg28
I1
sg29
I1
sg30
F1073.687117099762
sg31
(F0.105
F0.90000000000000002
tp2069
sg33
g1725
sg35
I01
sa(dp2070
g8
(I0
I1
tp2071
sg10
(lp2072
sg12
I291
sg13
g14
sg15
F2.5
sg16
I0
sg17
(lp2073
sg19
(lp2074
I13
aI8
asg21
F0.65833616256713867
sg22
(lp2075
g1723
ag1722
asg26
I1
sg27
I1
sg28
I0
sg29
I0
sg30
F1077.2575449943542
sg31
(F0.90000000000000002
F0.44900000000000001
tp2076
sg33
g1725
sg35
I01
sa(dp2077
g8
(I1
I0
tp2078
sg10
(lp2079
sg12
I292
sg13
g14
sg15
F2.5
sg16
I1
sg17
(lp2080
sg19
(lp2081
I8
aI3
asg21
F0.91288113594055176
sg22
(lp2082
g1722
ag1732
asg26
I1
sg27
I1
sg28
I0
sg29
I0
sg30
F1080.8280501365662
sg31
(F0.44900000000000001
F0.105
tp2083
sg33
g1725
sg35
I01
sa(dp2084
g8
(I1
I0
tp2085
sg10
(lp2086
sg12
I293
sg13
g14
sg15
F2.5
sg16
I1
sg17
(lp2087
sg19
(lp2088
I8
aI3
asg21
F0.87436985969543457
sg22
(lp2089
g1722
ag1732
asg26
I1
sg27
I1
sg28
I0
sg29
I0
sg30
F1084.3995079994202
sg31
(F0.44900000000000001
F0.105
tp2090
sg33
g1725
sg35
I01
sa(dp2091
g8
(I0
I1
tp2092
sg10
(lp2093
sg12
I294
sg13
g14
sg15
F2.5
sg16
I1
sg17
(lp2094
sg19
(lp2095
I3
aI13
asg21
F1.0168368816375732
sg22
(lp2096
g1732
ag1723
asg26
I1
sg27
I1
sg28
I1
sg29
I1
sg30
F1087.9691250324249
sg31
(F0.105
F0.90000000000000002
tp2097
sg33
g1725
sg35
I01
sa(dp2098
g8
(I0
I1
tp2099
sg10
(lp2100
sg12
I295
sg13
g14
sg15
F2.5
sg16
I1
sg17
(lp2101
sg19
(lp2102
I3
aI13
asg21
F0.5739738941192627
sg22
(lp2103
g1732
ag1723
asg26
I1
sg27
I1
sg28
I1
sg29
I1
sg30
F1091.5398399829865
sg31
(F0.105
F0.90000000000000002
tp2104
sg33
g1725
sg35
I01
sa(dp2105
g8
(I0
I0
tp2106
sg10
(lp2107
sg12
I296
sg13
g14
sg15
F2.5
sg16
I0
sg17
(lp2108
sg19
(lp2109
I8
aI3
asg21
F0.73867893218994141
sg22
(lp2110
g1722
ag1732
asg26
I1
sg27
I1
sg28
I0
sg29
I0
sg30
F1095.110347032547
sg31
(F0.44900000000000001
F0.105
tp2111
sg33
g1725
sg35
I01
sa(dp2112
g8
(I1
I1
tp2113
sg10
(lp2114
sg12
I297
sg13
g14
sg15
F2.5
sg16
I1
sg17
(lp2115
sg19
(lp2116
I3
aI13
asg21
F0.8193049430847168
sg22
(lp2117
g1732
ag1723
asg26
I1
sg27
I1
sg28
I1
sg29
I1
sg30
F1098.7322959899902
sg31
(F0.105
F0.90000000000000002
tp2118
sg33
g1725
sg35
I01
sa(dp2119
g8
(I0
I0
tp2120
sg10
(lp2121
sg12
I298
sg13
g14
sg15
F2.5
sg16
I0
sg17
(lp2122
sg19
(lp2123
I3
aI8
asg21
F1.3993198871612549
sg22
(lp2124
g1732
ag1722
asg26
I1
sg27
I1
sg28
I1
sg29
I1
sg30
F1102.3017151355743
sg31
(F0.105
F0.44900000000000001
tp2125
sg33
g1725
sg35
I01
sa(dp2126
g8
(I0
I0
tp2127
sg10
(lp2128
sg12
I299
sg13
g14
sg15
F2.5
sg16
I0
sg17
(lp2129
sg19
(lp2130
I8
aI3
asg21
F0.60797214508056641
sg22
(lp2131
g1722
ag1732
asg26
I1
sg27
I1
sg28
I0
sg29
I0
sg30
F1105.872015953064
sg31
(F0.44900000000000001
F0.105
tp2132
sg33
g1725
sg35
I01
sa(dp2133
g8
(I1
I0
tp2134
sg10
(lp2135
sg12
I300
sg13
g14
sg15
F2.5
sg16
I0
sg17
(lp2136
sg19
(lp2137
I8
aI3
asg21
F0.91937899589538574
sg22
(lp2138
g1722
ag1732
asg26
I1
sg27
I1
sg28
I0
sg29
I1
sg30
F1109.4425520896912
sg31
(F0.44900000000000001
F0.105
tp2139
sg33
g1725
sg35
I00
sa(dp2140
g8
(I1
I1
tp2141
sg10
(lp2142
sg12
I301
sg13
g14
sg15
F2.5
sg16
I1
sg17
(lp2143
sg19
(lp2144
I8
aI13
asg21
F0.62233400344848633
sg22
(lp2145
g1722
ag1723
asg26
I1
sg27
I1
sg28
I1
sg29
I1
sg30
F1113.013167142868
sg31
(F0.44900000000000001
F0.90000000000000002
tp2146
sg33
g1725
sg35
I01
sa(dp2147
g8
(I0
I1
tp2148
sg10
(lp2149
sg12
I302
sg13
g14
sg15
F2.5
sg16
I1
sg17
(lp2150
sg19
(lp2151
I3
aI13
asg21
F0.65792202949523926
sg22
(lp2152
g1732
ag1723
asg26
I1
sg27
I1
sg28
I1
sg29
I1
sg30
F1116.5973610877991
sg31
(F0.105
F0.90000000000000002
tp2153
sg33
g1725
sg35
I01
sa(dp2154
g8
(I0
I1
tp2155
sg10
(lp2156
sg12
I303
sg13
g14
sg15
F2.5
sg16
I1
sg17
(lp2157
sg19
(lp2158
I3
aI13
asg21
F0.95686793327331543
sg22
(lp2159
g1732
ag1723
asg26
I1
sg27
I1
sg28
I1
sg29
I1
sg30
F1120.1705269813538
sg31
(F0.105
F0.90000000000000002
tp2160
sg33
g1725
sg35
I01
sa(dp2161
g8
(I0
I1
tp2162
sg10
(lp2163
sg12
I304
sg13
g14
sg15
F2.5
sg16
I1
sg17
(lp2164
sg19
(lp2165
I3
aI13
asg21
F0.40105414390563965
sg22
(lp2166
g1732
ag1723
asg26
I1
sg27
I1
sg28
I1
sg29
I1
sg30
F1123.7416410446167
sg31
(F0.105
F0.90000000000000002
tp2167
sg33
g1725
sg35
I01
sa(dp2168
g8
(I1
I1
tp2169
sg10
(lp2170
sg12
I305
sg13
g14
sg15
F2.5
sg16
I1
sg17
(lp2171
sg19
(lp2172
I13
aI8
asg21
F0.49849796295166016
sg22
(lp2173
g1723
ag1722
asg26
I1
sg27
I1
sg28
I0
sg29
I0
sg30
F1127.3116099834442
sg31
(F0.90000000000000002
F0.44900000000000001
tp2174
sg33
g1725
sg35
I01
sa(dp2175
g8
(I1
I0
tp2176
sg10
(lp2177
sg12
I306
sg13
g14
sg15
F2.5
sg16
I1
sg17
(lp2178
sg19
(lp2179
I13
aI3
asg21
F0.4151451587677002
sg22
(lp2180
g1723
ag1732
asg26
I1
sg27
I1
sg28
I0
sg29
I0
sg30
F1130.8822431564331
sg31
(F0.90000000000000002
F0.105
tp2181
sg33
g1725
sg35
I01
sa(dp2182
g8
(I0
I1
tp2183
sg10
(lp2184
sg12
I307
sg13
g14
sg15
F2.5
sg16
I1
sg17
(lp2185
sg19
(lp2186
I3
aI13
asg21
F0.45639491081237793
sg22
(lp2187
g1732
ag1723
asg26
I1
sg27
I1
sg28
I1
sg29
I1
sg30
F1134.4524250030518
sg31
(F0.105
F0.90000000000000002
tp2188
sg33
g1725
sg35
I01
sa(dp2189
g8
(I0
I1
tp2190
sg10
(lp2191
sg12
I308
sg13
g14
sg15
F2.5
sg16
I1
sg17
(lp2192
sg19
(lp2193
I8
aI13
asg21
F0.45205998420715332
sg22
(lp2194
g1722
ag1723
asg26
I1
sg27
I1
sg28
I1
sg29
I1
sg30
F1138.0232801437378
sg31
(F0.44900000000000001
F0.90000000000000002
tp2195
sg33
g1725
sg35
I01
sa(dp2196
g8
(I0
I1
tp2197
sg10
(lp2198
sg12
I309
sg13
g14
sg15
F2.5
sg16
I1
sg17
(lp2199
sg19
(lp2200
I8
aI13
asg21
F0.3690650463104248
sg22
(lp2201
g1722
ag1723
asg26
I1
sg27
I1
sg28
I1
sg29
I1
sg30
F1141.5936751365662
sg31
(F0.44900000000000001
F0.90000000000000002
tp2202
sg33
g1725
sg35
I01
sa(dp2203
g8
(I1
I0
tp2204
sg10
(lp2205
sg12
I310
sg13
g14
sg15
F2.5
sg16
I1
sg17
(lp2206
sg19
(lp2207
I8
aI3
asg21
F0.90488195419311523
sg22
(lp2208
g1722
ag1732
asg26
I1
sg27
I1
sg28
I0
sg29
I0
sg30
F1145.1648781299591
sg31
(F0.44900000000000001
F0.105
tp2209
sg33
g1725
sg35
I01
sa(dp2210
g8
(I0
I1
tp2211
sg10
(lp2212
sg12
I311
sg13
g14
sg15
F2.5
sg16
I1
sg17
(lp2213
sg19
(lp2214
I8
aI13
asg21
F0.73211097717285156
sg22
(lp2215
g1722
ag1723
asg26
I1
sg27
I1
sg28
I1
sg29
I1
sg30
F1148.7348511219025
sg31
(F0.44900000000000001
F0.90000000000000002
tp2216
sg33
g1725
sg35
I01
sa(dp2217
g8
(I0
I0
tp2218
sg10
(lp2219
sg12
I312
sg13
g14
sg15
F2.5
sg16
I0
sg17
(lp2220
sg19
(lp2221
I8
aI3
asg21
F0.6152491569519043
sg22
(lp2222
g1722
ag1732
asg26
I1
sg27
I1
sg28
I0
sg29
I0
sg30
F1152.3054211139679
sg31
(F0.44900000000000001
F0.105
tp2223
sg33
g1725
sg35
I01
sa(dp2224
g8
(I0
I0
tp2225
sg10
(lp2226
sg12
I313
sg13
g14
sg15
F2.5
sg16
I0
sg17
(lp2227
sg19
(lp2228
I3
aI8
asg21
F1.2976751327514648
sg22
(lp2229
g1732
ag1722
asg26
I1
sg27
I1
sg28
I1
sg29
I0
sg30
F1155.875736951828
sg31
(F0.105
F0.44900000000000001
tp2230
sg33
g1725
sg35
I00
sa(dp2231
g8
(I0
I0
tp2232
sg10
(lp2233
sg12
I314
sg13
g14
sg15
F2.5
sg16
I0
sg17
(lp2234
sg19
(lp2235
I3
aI8
asg21
F1.3382539749145508
sg22
(lp2236
g1732
ag1722
asg26
I1
sg27
I1
sg28
I1
sg29
I1
sg30
F1159.4464349746704
sg31
(F0.105
F0.44900000000000001
tp2237
sg33
g1725
sg35
I01
sa(dp2238
g8
(I1
I0
tp2239
sg10
(lp2240
sg12
I315
sg13
g14
sg15
F2.5
sg16
I1
sg17
(lp2241
sg19
(lp2242
I8
aI3
asg21
F0.68148708343505859
sg22
(lp2243
g1722
ag1732
asg26
I1
sg27
I1
sg28
I0
sg29
I0
sg30
F1163.016695022583
sg31
(F0.44900000000000001
F0.105
tp2244
sg33
g1725
sg35
I01
sa(dp2245
g8
(I0
I1
tp2246
sg10
(lp2247
sg12
I316
sg13
g14
sg15
F2.5
sg16
I1
sg17
(lp2248
sg19
(lp2249
I3
aI13
asg21
F0.60979509353637695
sg22
(lp2250
g1732
ag1723
asg26
I1
sg27
I1
sg28
I1
sg29
I1
sg30
F1166.5872850418091
sg31
(F0.105
F0.90000000000000002
tp2251
sg33
g1725
sg35
I01
sa(dp2252
g8
(I1
I0
tp2253
sg10
(lp2254
sg12
I317
sg13
g14
sg15
F2.5
sg16
I1
sg17
(lp2255
sg19
(lp2256
I13
aI8
asg21
F0.50397682189941406
sg22
(lp2257
g1723
ag1722
asg26
I1
sg27
I1
sg28
I0
sg29
I0
sg30
F1170.1575629711151
sg31
(F0.90000000000000002
F0.44900000000000001
tp2258
sg33
g1725
sg35
I01
sa(dp2259
g8
(I1
I1
tp2260
sg10
(lp2261
sg12
I318
sg13
g14
sg15
F2.5
sg16
I1
sg17
(lp2262
sg19
(lp2263
I3
aI8
asg21
F1.8951029777526855
sg22
(lp2264
g1732
ag1722
asg26
I1
sg27
I1
sg28
I1
sg29
I0
sg30
F1173.7283959388733
sg31
(F0.105
F0.44900000000000001
tp2265
sg33
g1725
sg35
I00
sa(dp2266
g8
(I1
I0
tp2267
sg10
(lp2268
sg12
I319
sg13
g14
sg15
F2.5
sg16
I1
sg17
(lp2269
sg19
(lp2270
I13
aI8
asg21
F0.68713998794555664
sg22
(lp2271
g1723
ag1722
asg26
I1
sg27
I1
sg28
I0
sg29
I0
sg30
F1177.2991080284119
sg31
(F0.90000000000000002
F0.44900000000000001
tp2272
sg33
g1725
sg35
I01
sa(dp2273
g8
(I0
I0
tp2274
sg10
(lp2275
sg12
I320
sg13
g14
sg15
F2.5
sg16
I0
sg17
(lp2276
sg19
(lp2277
I3
aI8
asg21
F1.155285120010376
sg22
(lp2278
g1732
ag1722
asg26
I1
sg27
I1
sg28
I1
sg29
I0
sg30
F1180.8697259426117
sg31
(F0.105
F0.44900000000000001
tp2279
sg33
g1725
sg35
I00
sa(dp2280
g15
I30
sg13
g1155
sa(dp2281
g8
(I1
I0
tp2282
sg10
(lp2283
sg12
I321
sg13
g14
sg15
F2.5
sg16
I1
sg17
(lp2284
sg19
(lp2285
I13
aI8
asg21
F0.9997718334197998
sg22
(lp2286
g1723
ag1722
asg26
I1
sg27
I1
sg28
I0
sg29
I0
sg30
F1218.9609761238098
sg31
(F0.90000000000000002
F0.44900000000000001
tp2287
sg33
g1725
sg35
I01
sa(dp2288
g8
(I0
I1
tp2289
sg10
(lp2290
sg12
I322
sg13
g14
sg15
F2.5
sg16
I1
sg17
(lp2291
sg19
(lp2292
I8
aI13
asg21
F0.60175800323486328
sg22
(lp2293
g1722
ag1723
asg26
I1
sg27
I1
sg28
I1
sg29
I1
sg30
F1222.5305881500244
sg31
(F0.44900000000000001
F0.90000000000000002
tp2294
sg33
g1725
sg35
I01
sa(dp2295
g8
(I0
I1
tp2296
sg10
(lp2297
sg12
I323
sg13
g14
sg15
F2.5
sg16
I1
sg17
(lp2298
sg19
(lp2299
I8
aI13
asg21
F0.45100092887878418
sg22
(lp2300
g1722
ag1723
asg26
I1
sg27
I1
sg28
I1
sg29
I1
sg30
F1226.1015040874481
sg31
(F0.44900000000000001
F0.90000000000000002
tp2301
sg33
g1725
sg35
I01
sa(dp2302
g8
(I0
I0
tp2303
sg10
(lp2304
sg12
I324
sg13
g14
sg15
F2.5
sg16
I0
sg17
(lp2305
sg19
(lp2306
I3
aI8
asg21
F1.2347698211669922
sg22
(lp2307
g1732
ag1722
asg26
I1
sg27
I1
sg28
I1
sg29
I0
sg30
F1229.6720819473267
sg31
(F0.105
F0.44900000000000001
tp2308
sg33
g1725
sg35
I00
sa(dp2309
g8
(I1
I1
tp2310
sg10
(lp2311
sg12
I325
sg13
g14
sg15
F2.5
sg16
I1
sg17
(lp2312
sg19
(lp2313
I3
aI13
asg21
F0.61182498931884766
sg22
(lp2314
g1732
ag1723
asg26
I1
sg27
I1
sg28
I1
sg29
I1
sg30
F1233.2421109676361
sg31
(F0.105
F0.90000000000000002
tp2315
sg33
g1725
sg35
I01
sa(dp2316
g8
(I1
I0
tp2317
sg10
(lp2318
sg12
I326
sg13
g14
sg15
F2.5
sg16
I1
sg17
(lp2319
sg19
(lp2320
I13
aI8
asg21
F0.38193392753601074
sg22
(lp2321
g1723
ag1722
asg26
I1
sg27
I1
sg28
I0
sg29
I0
sg30
F1236.8127491474152
sg31
(F0.90000000000000002
F0.44900000000000001
tp2322
sg33
g1725
sg35
I01
sa(dp2323
g8
(I0
I1
tp2324
sg10
(lp2325
sg12
I327
sg13
g14
sg15
F2.5
sg16
I1
sg17
(lp2326
sg19
(lp2327
I3
aI13
asg21
F0.43431401252746582
sg22
(lp2328
g1732
ag1723
asg26
I1
sg27
I1
sg28
I1
sg29
I1
sg30
F1240.383162021637
sg31
(F0.105
F0.90000000000000002
tp2329
sg33
g1725
sg35
I01
sa(dp2330
g8
(I1
I1
tp2331
sg10
(lp2332
sg12
I328
sg13
g14
sg15
F2.5
sg16
I1
sg17
(lp2333
sg19
(lp2334
I13
aI8
asg21
F0.49718689918518066
sg22
(lp2335
g1723
ag1722
asg26
I1
sg27
I1
sg28
I0
sg29
I0
sg30
F1243.9540181159973
sg31
(F0.90000000000000002
F0.44900000000000001
tp2336
sg33
g1725
sg35
I01
sa(dp2337
g8
(I0
I0
tp2338
sg10
(lp2339
sg12
I329
sg13
g14
sg15
F2.5
sg16
I0
sg17
(lp2340
sg19
(lp2341
I8
aI3
asg21
F1.0561048984527588
sg22
(lp2342
g1722
ag1732
asg26
I1
sg27
I1
sg28
I0
sg29
I0
sg30
F1247.5244519710541
sg31
(F0.44900000000000001
F0.105
tp2343
sg33
g1725
sg35
I01
sa(dp2344
g8
(I0
I1
tp2345
sg10
(lp2346
sg12
I330
sg13
g14
sg15
F2.5
sg16
I1
sg17
(lp2347
sg19
(lp2348
I3
aI13
asg21
F0.59047079086303711
sg22
(lp2349
g1732
ag1723
asg26
I1
sg27
I1
sg28
I1
sg29
I1
sg30
F1251.0949621200562
sg31
(F0.105
F0.90000000000000002
tp2350
sg33
g1725
sg35
I01
sa(dp2351
g8
(I1
I0
tp2352
sg10
(lp2353
sg12
I331
sg13
g14
sg15
F2.5
sg16
I1
sg17
(lp2354
sg19
(lp2355
I13
aI3
asg21
F0.43946504592895508
sg22
(lp2356
g1723
ag1732
asg26
I1
sg27
I1
sg28
I0
sg29
I0
sg30
F1254.6651649475098
sg31
(F0.90000000000000002
F0.105
tp2357
sg33
g1725
sg35
I01
sa(dp2358
g8
(I1
I1
tp2359
sg10
(lp2360
sg12
I332
sg13
g14
sg15
F2.5
sg16
I1
sg17
(lp2361
sg19
(lp2362
I13
aI8
asg21
F0.41316103935241699
sg22
(lp2363
g1723
ag1722
asg26
I1
sg27
I1
sg28
I0
sg29
I0
sg30
F1258.2360360622406
sg31
(F0.90000000000000002
F0.44900000000000001
tp2364
sg33
g1725
sg35
I01
sa(dp2365
g8
(I0
I0
tp2366
sg10
(lp2367
sg12
I333
sg13
g14
sg15
F2.5
sg16
I0
sg17
(lp2368
sg19
(lp2369
I3
aI8
asg21
F1.5790431499481201
sg22
(lp2370
g1732
ag1722
asg26
I1
sg27
I1
sg28
I1
sg29
I1
sg30
F1261.8061580657959
sg31
(F0.105
F0.44900000000000001
tp2371
sg33
g1725
sg35
I01
sa(dp2372
g8
(I0
I0
tp2373
sg10
(lp2374
sg12
I334
sg13
g14
sg15
F2.5
sg16
I0
sg17
(lp2375
sg19
(lp2376
I13
aI8
asg21
F0.55081701278686523
sg22
(lp2377
g1723
ag1722
asg26
I1
sg27
I1
sg28
I0
sg29
I0
sg30
F1265.3775081634521
sg31
(F0.90000000000000002
F0.44900000000000001
tp2378
sg33
g1725
sg35
I01
sa(dp2379
g8
(I1
I0
tp2380
sg10
(lp2381
sg12
I335
sg13
g14
sg15
F2.5
sg16
I1
sg17
(lp2382
sg19
(lp2383
I13
aI3
asg21
F0.47906994819641113
sg22
(lp2384
g1723
ag1732
asg26
I1
sg27
I1
sg28
I0
sg29
I0
sg30
F1268.9472720623016
sg31
(F0.90000000000000002
F0.105
tp2385
sg33
g1725
sg35
I01
sa(dp2386
g8
(I0
I1
tp2387
sg10
(lp2388
sg12
I336
sg13
g14
sg15
F2.5
sg16
I1
sg17
(lp2389
sg19
(lp2390
I8
aI13
asg21
F0.97023606300354004
sg22
(lp2391
g1722
ag1723
asg26
I1
sg27
I1
sg28
I1
sg29
I1
sg30
F1272.5175750255585
sg31
(F0.44900000000000001
F0.90000000000000002
tp2392
sg33
g1725
sg35
I01
sa(dp2393
g8
(I0
I1
tp2394
sg10
(lp2395
sg12
I337
sg13
g14
sg15
F2.5
sg16
I1
sg17
(lp2396
sg19
(lp2397
I3
aI13
asg21
F0.41438889503479004
sg22
(lp2398
g1732
ag1723
asg26
I1
sg27
I1
sg28
I1
sg29
I1
sg30
F1276.0881450176239
sg31
(F0.105
F0.90000000000000002
tp2399
sg33
g1725
sg35
I01
sa(dp2400
g8
(I1
I0
tp2401
sg10
(lp2402
sg12
I338
sg13
g14
sg15
F2.5
sg16
I1
sg17
(lp2403
sg19
(lp2404
I13
aI3
asg21
F0.43250489234924316
sg22
(lp2405
g1723
ag1732
asg26
I1
sg27
I1
sg28
I0
sg29
I0
sg30
F1279.6587319374084
sg31
(F0.90000000000000002
F0.105
tp2406
sg33
g1725
sg35
I01
sa(dp2407
g8
(I1
I0
tp2408
sg10
(lp2409
sg12
I339
sg13
g14
sg15
F2.5
sg16
I1
sg17
(lp2410
sg19
(lp2411
I8
aI3
asg21
F0.95742583274841309
sg22
(lp2412
g1722
ag1732
asg26
I1
sg27
I1
sg28
I0
sg29
I0
sg30
F1283.2294459342957
sg31
(F0.44900000000000001
F0.105
tp2413
sg33
g1725
sg35
I01
sa(dp2414
g8
(I1
I0
tp2415
sg10
(lp2416
sg12
I340
sg13
g14
sg15
F2.5
sg16
I1
sg17
(lp2417
sg19
(lp2418
I13
aI3
asg21
F0.7052922248840332
sg22
(lp2419
g1723
ag1732
asg26
I1
sg27
I1
sg28
I0
sg29
I0
sg30
F1286.7998099327087
sg31
(F0.90000000000000002
F0.105
tp2420
sg33
g1725
sg35
I01
sa(dp2421
g8
(I0
I1
tp2422
sg10
(lp2423
sg12
I341
sg13
g14
sg15
F2.5
sg16
I1
sg17
(lp2424
sg19
(lp2425
I8
aI13
asg21
F0.42003798484802246
sg22
(lp2426
g1722
ag1723
asg26
I1
sg27
I1
sg28
I1
sg29
I1
sg30
F1290.3702521324158
sg31
(F0.44900000000000001
F0.90000000000000002
tp2427
sg33
g1725
sg35
I01
sa(dp2428
g8
(I1
I0
tp2429
sg10
(lp2430
sg12
I342
sg13
g14
sg15
F2.5
sg16
I1
sg17
(lp2431
sg19
(lp2432
I13
aI3
asg21
F0.4608769416809082
sg22
(lp2433
g1723
ag1732
asg26
I1
sg27
I1
sg28
I0
sg29
I0
sg30
F1293.9410920143127
sg31
(F0.90000000000000002
F0.105
tp2434
sg33
g1725
sg35
I01
sa(dp2435
g8
(I1
I0
tp2436
sg10
(lp2437
sg12
I343
sg13
g14
sg15
F2.5
sg16
I1
sg17
(lp2438
sg19
(lp2439
I13
aI3
asg21
F0.55778908729553223
sg22
(lp2440
g1723
ag1732
asg26
I1
sg27
I1
sg28
I0
sg29
I0
sg30
F1297.5110790729523
sg31
(F0.90000000000000002
F0.105
tp2441
sg33
g1725
sg35
I01
sa(dp2442
g8
(I1
I1
tp2443
sg10
(lp2444
sg12
I344
sg13
g14
sg15
F2.5
sg16
I1
sg17
(lp2445
sg19
(lp2446
I13
aI8
asg21
F0.36208605766296387
sg22
(lp2447
g1723
ag1722
asg26
I1
sg27
I1
sg28
I0
sg29
I0
sg30
F1301.0823531150818
sg31
(F0.90000000000000002
F0.44900000000000001
tp2448
sg33
g1725
sg35
I01
sa(dp2449
g8
(I0
I0
tp2450
sg10
(lp2451
sg12
I345
sg13
g14
sg15
F2.5
sg16
I0
sg17
(lp2452
sg19
(lp2453
I8
aI3
asg21
F0.95421004295349121
sg22
(lp2454
g1722
ag1732
asg26
I1
sg27
I1
sg28
I0
sg29
I0
sg30
F1304.6523921489716
sg31
(F0.44900000000000001
F0.105
tp2455
sg33
g1725
sg35
I01
sa(dp2456
g8
(I1
I1
tp2457
sg10
(lp2458
sg12
I346
sg13
g14
sg15
F2.5
sg16
I1
sg17
(lp2459
sg19
(lp2460
I3
aI13
asg21
F0.64628505706787109
sg22
(lp2461
g1732
ag1723
asg26
I1
sg27
I1
sg28
I1
sg29
I1
sg30
F1308.223130941391
sg31
(F0.105
F0.90000000000000002
tp2462
sg33
g1725
sg35
I01
sa(dp2463
g8
(I0
I0
tp2464
sg10
(lp2465
sg12
I347
sg13
g14
sg15
F2.5
sg16
I0
sg17
(lp2466
sg19
(lp2467
I3
aI8
asg21
F1.7561399936676025
sg22
(lp2468
g1732
ag1722
asg26
I1
sg27
I1
sg28
I1
sg29
I0
sg30
F1311.7935290336609
sg31
(F0.105
F0.44900000000000001
tp2469
sg33
g1725
sg35
I00
sa(dp2470
g8
(I0
I1
tp2471
sg10
(lp2472
sg12
I348
sg13
g14
sg15
F2.5
sg16
I1
sg17
(lp2473
sg19
(lp2474
I8
aI13
asg21
F0.57011079788208008
sg22
(lp2475
g1722
ag1723
asg26
I1
sg27
I1
sg28
I1
sg29
I1
sg30
F1315.3639421463013
sg31
(F0.44900000000000001
F0.90000000000000002
tp2476
sg33
g1725
sg35
I01
sa(dp2477
g8
(I1
I0
tp2478
sg10
(lp2479
sg12
I349
sg13
g14
sg15
F2.5
sg16
I1
sg17
(lp2480
sg19
(lp2481
I8
aI3
asg21
F-4.3592178821563721
sg22
(lp2482
g1722
ag1732
asg26
I1
sg27
I1
sg28
I0
sg29
I0
sg30
F1318.9345209598541
sg31
(F0.44900000000000001
F0.105
tp2483
sg33
g1725
sg35
I01
sa(dp2484
g8
(I1
I1
tp2485
sg10
(lp2486
sg12
I350
sg13
g14
sg15
F2.5
sg16
I1
sg17
(lp2487
sg19
(lp2488
I8
aI13
asg21
F0.66575908660888672
sg22
(lp2489
g1722
ag1723
asg26
I1
sg27
I1
sg28
I1
sg29
I1
sg30
F1322.4931690692902
sg31
(F0.44900000000000001
F0.90000000000000002
tp2490
sg33
g1725
sg35
I01
sa(dp2491
g8
(I0
I1
tp2492
sg10
(lp2493
sg12
I351
sg13
g14
sg15
F2.5
sg16
I1
sg17
(lp2494
sg19
(lp2495
I3
aI13
asg21
F0.44737792015075684
sg22
(lp2496
g1732
ag1723
asg26
I1
sg27
I1
sg28
I1
sg29
I1
sg30
F1326.063894033432
sg31
(F0.105
F0.90000000000000002
tp2497
sg33
g1725
sg35
I01
sa(dp2498
g8
(I0
I0
tp2499
sg10
(lp2500
sg12
I352
sg13
g14
sg15
F2.5
sg16
I0
sg17
(lp2501
sg19
(lp2502
I3
aI8
asg21
F1.3319652080535889
sg22
(lp2503
g1732
ag1722
asg26
I1
sg27
I1
sg28
I1
sg29
I1
sg30
F1329.6348650455475
sg31
(F0.105
F0.44900000000000001
tp2504
sg33
g1725
sg35
I01
sa(dp2505
g8
(I1
I0
tp2506
sg10
(lp2507
sg12
I353
sg13
g14
sg15
F2.5
sg16
I1
sg17
(lp2508
sg19
(lp2509
I13
aI3
asg21
F0.46172094345092773
sg22
(lp2510
g1723
ag1732
asg26
I1
sg27
I1
sg28
I0
sg29
I0
sg30
F1333.2052891254425
sg31
(F0.90000000000000002
F0.105
tp2511
sg33
g1725
sg35
I01
sa(dp2512
g8
(I0
I1
tp2513
sg10
(lp2514
sg12
I354
sg13
g14
sg15
F2.5
sg16
I1
sg17
(lp2515
sg19
(lp2516
I3
aI13
asg21
F0.40141701698303223
sg22
(lp2517
g1732
ag1723
asg26
I1
sg27
I1
sg28
I1
sg29
I1
sg30
F1336.7753469944
sg31
(F0.105
F0.90000000000000002
tp2518
sg33
g1725
sg35
I01
sa(dp2519
g8
(I1
I0
tp2520
sg10
(lp2521
sg12
I355
sg13
g14
sg15
F2.5
sg16
I1
sg17
(lp2522
sg19
(lp2523
I8
aI3
asg21
F0.86946201324462891
sg22
(lp2524
g1722
ag1732
asg26
I1
sg27
I1
sg28
I0
sg29
I0
sg30
F1340.3458819389343
sg31
(F0.44900000000000001
F0.105
tp2525
sg33
g1725
sg35
I01
sa(dp2526
g8
(I0
I0
tp2527
sg10
(lp2528
sg12
I356
sg13
g14
sg15
F2.5
sg16
I0
sg17
(lp2529
sg19
(lp2530
I8
aI3
asg21
F0.6741631031036377
sg22
(lp2531
g1722
ag1732
asg26
I1
sg27
I1
sg28
I0
sg29
I0
sg30
F1343.9162859916687
sg31
(F0.44900000000000001
F0.105
tp2532
sg33
g1725
sg35
I01
sa(dp2533
g8
(I1
I0
tp2534
sg10
(lp2535
sg12
I357
sg13
g14
sg15
F2.5
sg16
I1
sg17
(lp2536
sg19
(lp2537
I13
aI8
asg21
F0.44489002227783203
sg22
(lp2538
g1723
ag1722
asg26
I1
sg27
I1
sg28
I0
sg29
I0
sg30
F1347.4870941638947
sg31
(F0.90000000000000002
F0.44900000000000001
tp2539
sg33
g1725
sg35
I01
sa(dp2540
g8
(I0
I1
tp2541
sg10
(lp2542
sg12
I358
sg13
g14
sg15
F2.5
sg16
I1
sg17
(lp2543
sg19
(lp2544
I3
aI13
asg21
F0.59802103042602539
sg22
(lp2545
g1732
ag1723
asg26
I1
sg27
I1
sg28
I1
sg29
I1
sg30
F1351.0580699443817
sg31
(F0.105
F0.90000000000000002
tp2546
sg33
g1725
sg35
I01
sa(dp2547
g8
(I0
I1
tp2548
sg10
(lp2549
sg12
I359
sg13
g14
sg15
F2.5
sg16
I1
sg17
(lp2550
sg19
(lp2551
I3
aI8
asg21
F1.4263010025024414
sg22
(lp2552
g1732
ag1722
asg26
I1
sg27
I1
sg28
I1
sg29
I1
sg30
F1354.6279511451721
sg31
(F0.105
F0.44900000000000001
tp2553
sg33
g1725
sg35
I01
sa(dp2554
g8
(I1
I1
tp2555
sg10
(lp2556
sg12
I360
sg13
g14
sg15
F2.5
sg16
I1
sg17
(lp2557
sg19
(lp2558
I8
aI13
asg21
F0.6010890007019043
sg22
(lp2559
g1722
ag1723
asg26
I1
sg27
I1
sg28
I1
sg29
I1
sg30
F1358.1984469890594
sg31
(F0.44900000000000001
F0.90000000000000002
tp2560
sg33
g1725
sg35
I01
sa(dp2561
g8
(I0
I1
tp2562
sg10
(lp2563
sg12
I361
sg13
g14
sg15
F2.5
sg16
I1
sg17
(lp2564
sg19
(lp2565
I5
aI4
asg21
F1.6662600040435791
sg22
(lp2566
S'images/15.png'
p2567
aS'images/5.png'
p2568
asg26
I0
sg27
I1
sg28
Fnan
sg29
I1
sg30
F1361.7687020301819
sg31
(F0.5
F0.5
tp2569
sg33
(I4
I5
tp2570
sg35
Fnan
sa(dp2571
g8
(I1
I0
tp2572
sg10
(lp2573
sg12
I362
sg13
g14
sg15
F2.5
sg16
I1
sg17
(lp2574
sg19
(lp2575
I5
aI4
asg21
F1.4933691024780273
sg22
(lp2576
g2567
ag2568
asg26
I0
sg27
I1
sg28
Fnan
sg29
I0
sg30
F1365.4060499668121
sg31
(F0.5
F0.5
tp2577
sg33
g2570
sg35
Fnan
sa(dp2578
g8
(I0
I1
tp2579
sg10
(lp2580
sg12
I363
sg13
g14
sg15
F2.5
sg16
I0
sg17
(lp2581
sg19
(lp2582
I4
aI5
asg21
F0.63432216644287109
sg22
(lp2583
g2568
ag2567
asg26
I0
sg27
I1
sg28
Fnan
sg29
I0
sg30
F1368.9766700267792
sg31
(F0.5
F0.5
tp2584
sg33
g2570
sg35
Fnan
sa(dp2585
g8
(I1
I0
tp2586
sg10
(lp2587
sg12
I364
sg13
g14
sg15
F2.5
sg16
I0
sg17
(lp2588
sg19
(lp2589
I5
aI4
asg21
F0.63003993034362793
sg22
(lp2590
g2567
ag2568
asg26
I0
sg27
I1
sg28
Fnan
sg29
I1
sg30
F1372.5469491481781
sg31
(F0.5
F0.5
tp2591
sg33
g2570
sg35
Fnan
sa(dp2592
g8
(I1
I1
tp2593
sg10
(lp2594
sg12
I365
sg13
g14
sg15
F2.5
sg16
I1
sg17
(lp2595
sg19
(lp2596
I4
aI5
asg21
F0.68203592300415039
sg22
(lp2597
g2568
ag2567
asg26
I0
sg27
I1
sg28
Fnan
sg29
I0
sg30
F1376.1178901195526
sg31
(F0.5
F0.5
tp2598
sg33
g2570
sg35
Fnan
sa(dp2599
g8
(I1
I0
tp2600
sg10
(lp2601
sg12
I366
sg13
g14
sg15
F2.5
sg16
I0
sg17
(lp2602
sg19
(lp2603
I5
aI4
asg21
F0.44130802154541016
sg22
(lp2604
g2567
ag2568
asg26
I0
sg27
I1
sg28
Fnan
sg29
I1
sg30
F1379.6888880729675
sg31
(F0.5
F0.5
tp2605
sg33
g2570
sg35
Fnan
sa(dp2606
g8
(I0
I1
tp2607
sg10
(lp2608
sg12
I367
sg13
g14
sg15
F2.5
sg16
I0
sg17
(lp2609
sg19
(lp2610
I4
aI5
asg21
F0.90966200828552246
sg22
(lp2611
g2568
ag2567
asg26
I0
sg27
I1
sg28
Fnan
sg29
I0
sg30
F1383.2588379383087
sg31
(F0.5
F0.5
tp2612
sg33
g2570
sg35
Fnan
sa(dp2613
g8
(I1
I1
tp2614
sg10
(lp2615
sg12
I368
sg13
g14
sg15
F2.5
sg16
I1
sg17
(lp2616
sg19
(lp2617
I4
aI5
asg21
F0.5113520622253418
sg22
(lp2618
g2568
ag2567
asg26
I0
sg27
I1
sg28
Fnan
sg29
I0
sg30
F1386.8296091556549
sg31
(F0.5
F0.5
tp2619
sg33
g2570
sg35
Fnan
sa(dp2620
g8
(I1
I0
tp2621
sg10
(lp2622
sg12
I369
sg13
g14
sg15
F2.5
sg16
I0
sg17
(lp2623
sg19
(lp2624
I5
aI4
asg21
F0.58638596534729004
sg22
(lp2625
g2567
ag2568
asg26
I0
sg27
I1
sg28
Fnan
sg29
I1
sg30
F1390.3995931148529
sg31
(F0.5
F0.5
tp2626
sg33
g2570
sg35
Fnan
sa(dp2627
g8
(I0
I1
tp2628
sg10
(lp2629
sg12
I370
sg13
g14
sg15
F2.5
sg16
I1
sg17
(lp2630
sg19
(lp2631
I5
aI4
asg21
F0.5820610523223877
sg22
(lp2632
g2567
ag2568
asg26
I0
sg27
I1
sg28
Fnan
sg29
I1
sg30
F1393.9706890583038
sg31
(F0.5
F0.5
tp2633
sg33
g2570
sg35
Fnan
sa(dp2634
g8
(I1
I1
tp2635
sg10
(lp2636
sg12
I371
sg13
g14
sg15
F2.5
sg16
I1
sg17
(lp2637
sg19
(lp2638
I4
aI5
asg21
F0.71324491500854492
sg22
(lp2639
g2568
ag2567
asg26
I1
sg27
I1
sg28
Fnan
sg29
I0
sg30
F1397.5409519672394
sg31
(F0.5
F0.5
tp2640
sg33
g2570
sg35
Fnan
sa(dp2641
g8
(I0
I0
tp2642
sg10
(lp2643
sg12
I372
sg13
g14
sg15
F2.5
sg16
I0
sg17
(lp2644
sg19
(lp2645
I5
aI4
asg21
F0.483734130859375
sg22
(lp2646
g2567
ag2568
asg26
I1
sg27
I1
sg28
Fnan
sg29
I1
sg30
F1401.1111350059509
sg31
(F0.5
F0.5
tp2647
sg33
g2570
sg35
Fnan
sa(dp2648
g8
(I1
I0
tp2649
sg10
(lp2650
sg12
I373
sg13
g14
sg15
F2.5
sg16
I1
sg17
(lp2651
sg19
(lp2652
I4
aI5
asg21
F0.44535112380981445
sg22
(lp2653
g2568
ag2567
asg26
I1
sg27
I1
sg28
Fnan
sg29
I0
sg30
F1404.6818120479584
sg31
(F0.5
F0.5
tp2654
sg33
g2570
sg35
Fnan
sa(dp2655
g8
(I1
I0
tp2656
sg10
(lp2657
sg12
I374
sg13
g14
sg15
F2.5
sg16
I1
sg17
(lp2658
sg19
(lp2659
I5
aI4
asg21
F0.64376282691955566
sg22
(lp2660
g2567
ag2568
asg26
I1
sg27
I1
sg28
Fnan
sg29
I0
sg30
F1408.2520339488983
sg31
(F0.5
F0.5
tp2661
sg33
g2570
sg35
Fnan
sa(dp2662
g8
(I1
I1
tp2663
sg10
(lp2664
sg12
I375
sg13
g14
sg15
F2.5
sg16
I1
sg17
(lp2665
sg19
(lp2666
I5
aI4
asg21
F0.98868608474731445
sg22
(lp2667
g2567
ag2568
asg26
I1
sg27
I1
sg28
Fnan
sg29
I0
sg30
F1411.8227970600128
sg31
(F0.5
F0.5
tp2668
sg33
g2570
sg35
Fnan
sa(dp2669
g8
(I0
I1
tp2670
sg10
(lp2671
sg12
I376
sg13
g14
sg15
F2.5
sg16
I0
sg17
(lp2672
sg19
(lp2673
I4
aI5
asg21
F1.0740420818328857
sg22
(lp2674
g2568
ag2567
asg26
I1
sg27
I1
sg28
Fnan
sg29
I0
sg30
F1415.3929030895233
sg31
(F0.5
F0.5
tp2675
sg33
g2570
sg35
Fnan
sa(dp2676
g8
(I1
I0
tp2677
sg10
(lp2678
sg12
I377
sg13
g14
sg15
F2.5
sg16
I0
sg17
(lp2679
sg19
(lp2680
I4
aI5
asg21
F1.0253818035125732
sg22
(lp2681
g2568
ag2567
asg26
I1
sg27
I1
sg28
Fnan
sg29
I1
sg30
F1418.9637310504913
sg31
(F0.5
F0.5
tp2682
sg33
g2570
sg35
Fnan
sa(dp2683
g8
(I0
I1
tp2684
sg10
(lp2685
sg12
I378
sg13
g14
sg15
F2.5
sg16
I0
sg17
(lp2686
sg19
(lp2687
I4
aI5
asg21
F0.55927300453186035
sg22
(lp2688
g2568
ag2567
asg26
I1
sg27
I1
sg28
Fnan
sg29
I0
sg30
F1422.5345630645752
sg31
(F0.5
F0.5
tp2689
sg33
g2570
sg35
Fnan
sa(dp2690
g8
(I0
I0
tp2691
sg10
(lp2692
sg12
I379
sg13
g14
sg15
F2.5
sg16
I0
sg17
(lp2693
sg19
(lp2694
I5
aI4
asg21
F1.4774370193481445
sg22
(lp2695
g2567
ag2568
asg26
I1
sg27
I1
sg28
Fnan
sg29
I0
sg30
F1426.104583978653
sg31
(F0.5
F0.5
tp2696
sg33
g2570
sg35
Fnan
sa(dp2697
g8
(I0
I0
tp2698
sg10
(lp2699
sg12
I380
sg13
g14
sg15
F2.5
sg16
I0
sg17
(lp2700
sg19
(lp2701
I5
aI4
asg21
F0.52839899063110352
sg22
(lp2702
g2567
ag2568
asg26
I1
sg27
I1
sg28
Fnan
sg29
I1
sg30
F1429.6752049922943
sg31
(F0.5
F0.5
tp2703
sg33
g2570
sg35
Fnan
sa(dp2704
g8
(I0
I1
tp2705
sg10
(lp2706
sg12
I381
sg13
g14
sg15
F2.5
sg16
I0
sg17
(lp2707
sg19
(lp2708
I4
aI5
asg21
F0.53532600402832031
sg22
(lp2709
g2568
ag2567
asg26
I1
sg27
I1
sg28
Fnan
sg29
I0
sg30
F1433.2458429336548
sg31
(F0.5
F0.5
tp2710
sg33
g2570
sg35
Fnan
sa(dp2711
g8
(I1
I0
tp2712
sg10
(lp2713
sg12
I382
sg13
g14
sg15
F2.5
sg16
I1
sg17
(lp2714
sg19
(lp2715
I5
aI4
asg21
F1.3302369117736816
sg22
(lp2716
g2567
ag2568
asg26
I1
sg27
I1
sg28
Fnan
sg29
I0
sg30
F1436.816456079483
sg31
(F0.5
F0.5
tp2717
sg33
g2570
sg35
Fnan
sa(dp2718
g8
(I0
I1
tp2719
sg10
(lp2720
sg12
I383
sg13
g14
sg15
F2.5
sg16
I1
sg17
(lp2721
sg19
(lp2722
I4
aI5
asg21
F1.2917518615722656
sg22
(lp2723
g2568
ag2567
asg26
I1
sg27
I1
sg28
Fnan
sg29
I1
sg30
F1440.3877110481262
sg31
(F0.5
F0.5
tp2724
sg33
g2570
sg35
Fnan
sa(dp2725
g8
(I1
I1
tp2726
sg10
(lp2727
sg12
I384
sg13
g14
sg15
F2.5
sg16
I1
sg17
(lp2728
sg19
(lp2729
I5
aI4
asg21
F0.5342099666595459
sg22
(lp2730
g2567
ag2568
asg26
I1
sg27
I1
sg28
Fnan
sg29
I0
sg30
F1443.9575130939484
sg31
(F0.5
F0.5
tp2731
sg33
g2570
sg35
Fnan
sa(dp2732
g8
(I1
I1
tp2733
sg10
(lp2734
sg12
I385
sg13
g14
sg15
F2.5
sg16
I1
sg17
(lp2735
sg19
(lp2736
I5
aI4
asg21
F0.47363901138305664
sg22
(lp2737
g2567
ag2568
asg26
I1
sg27
I1
sg28
Fnan
sg29
I0
sg30
F1447.5277581214905
sg31
(F0.5
F0.5
tp2738
sg33
g2570
sg35
Fnan
sa(dp2739
g8
(I0
I1
tp2740
sg10
(lp2741
sg12
I386
sg13
g14
sg15
F2.5
sg16
I1
sg17
(lp2742
sg19
(lp2743
I4
aI5
asg21
F0.42444705963134766
sg22
(lp2744
g2568
ag2567
asg26
I1
sg27
I1
sg28
Fnan
sg29
I1
sg30
F1451.0981090068817
sg31
(F0.5
F0.5
tp2745
sg33
g2570
sg35
Fnan
sa(dp2746
g8
(I0
I1
tp2747
sg10
(lp2748
sg12
I387
sg13
g14
sg15
F2.5
sg16
I1
sg17
(lp2749
sg19
(lp2750
I4
aI5
asg21
F0.5775299072265625
sg22
(lp2751
g2568
ag2567
asg26
I1
sg27
I1
sg28
Fnan
sg29
I1
sg30
F1454.6690421104431
sg31
(F0.5
F0.5
tp2752
sg33
g2570
sg35
Fnan
sa(dp2753
g8
(I1
I1
tp2754
sg10
(lp2755
sg12
I388
sg13
g14
sg15
F2.5
sg16
I1
sg17
(lp2756
sg19
(lp2757
I5
aI4
asg21
F0.48290395736694336
sg22
(lp2758
g2567
ag2568
asg26
I1
sg27
I1
sg28
Fnan
sg29
I0
sg30
F1458.2394750118256
sg31
(F0.5
F0.5
tp2759
sg33
g2570
sg35
Fnan
sa(dp2760
g8
(I1
I1
tp2761
sg10
(lp2762
sg12
I389
sg13
g14
sg15
F2.5
sg16
I1
sg17
(lp2763
sg19
(lp2764
I4
aI5
asg21
F0.45646810531616211
sg22
(lp2765
g2568
ag2567
asg26
I1
sg27
I1
sg28
Fnan
sg29
I1
sg30
F1461.809798002243
sg31
(F0.5
F0.5
tp2766
sg33
g2570
sg35
Fnan
sa(dp2767
g8
(I1
I0
tp2768
sg10
(lp2769
sg12
I390
sg13
g14
sg15
F2.5
sg16
I0
sg17
(lp2770
sg19
(lp2771
I4
aI5
asg21
F0.50869607925415039
sg22
(lp2772
g2568
ag2567
asg26
I1
sg27
I1
sg28
Fnan
sg29
I1
sg30
F1465.380156993866
sg31
(F0.5
F0.5
tp2773
sg33
g2570
sg35
Fnan
sa(dp2774
g8
(I0
I1
tp2775
sg10
(lp2776
sg12
I391
sg13
g14
sg15
F2.5
sg16
I1
sg17
(lp2777
sg19
(lp2778
I4
aI5
asg21
F0.41409897804260254
sg22
(lp2779
g2568
ag2567
asg26
I1
sg27
I1
sg28
Fnan
sg29
I1
sg30
F1468.9512920379639
sg31
(F0.5
F0.5
tp2780
sg33
g2570
sg35
Fnan
sa(dp2781
g8
(I1
I0
tp2782
sg10
(lp2783
sg12
I392
sg13
g14
sg15
F2.5
sg16
I0
sg17
(lp2784
sg19
(lp2785
I4
aI5
asg21
F0.50046586990356445
sg22
(lp2786
g2568
ag2567
asg26
I1
sg27
I1
sg28
Fnan
sg29
I1
sg30
F1472.5211989879608
sg31
(F0.5
F0.5
tp2787
sg33
g2570
sg35
Fnan
sa(dp2788
g8
(I0
I1
tp2789
sg10
(lp2790
sg12
I393
sg13
g14
sg15
F2.5
sg16
I1
sg17
(lp2791
sg19
(lp2792
I4
aI5
asg21
F0.38365507125854492
sg22
(lp2793
g2568
ag2567
asg26
I1
sg27
I1
sg28
Fnan
sg29
I1
sg30
F1476.0917339324951
sg31
(F0.5
F0.5
tp2794
sg33
g2570
sg35
Fnan
sa(dp2795
g8
(I1
I1
tp2796
sg10
(lp2797
sg12
I394
sg13
g14
sg15
F2.5
sg16
I1
sg17
(lp2798
sg19
(lp2799
I5
aI4
asg21
F0.67174100875854492
sg22
(lp2800
g2567
ag2568
asg26
I1
sg27
I1
sg28
Fnan
sg29
I0
sg30
F1479.6626930236816
sg31
(F0.5
F0.5
tp2801
sg33
g2570
sg35
Fnan
sa(dp2802
g8
(I1
I1
tp2803
sg10
(lp2804
sg12
I395
sg13
g14
sg15
F2.5
sg16
I1
sg17
(lp2805
sg19
(lp2806
I5
aI4
asg21
F0.46478891372680664
sg22
(lp2807
g2567
ag2568
asg26
I1
sg27
I1
sg28
Fnan
sg29
I0
sg30
F1483.2329289913177
sg31
(F0.5
F0.5
tp2808
sg33
g2570
sg35
Fnan
sa(dp2809
g8
(I0
I0
tp2810
sg10
(lp2811
sg12
I396
sg13
g14
sg15
F2.5
sg16
I0
sg17
(lp2812
sg19
(lp2813
I5
aI4
asg21
F0.42717504501342773
sg22
(lp2814
g2567
ag2568
asg26
I1
sg27
I1
sg28
Fnan
sg29
I0
sg30
F1486.8036630153656
sg31
(F0.5
F0.5
tp2815
sg33
g2570
sg35
Fnan
sa(dp2816
g8
(I0
I1
tp2817
sg10
(lp2818
sg12
I397
sg13
g14
sg15
F2.5
sg16
I0
sg17
(lp2819
sg19
(lp2820
I5
aI4
asg21
F0.51274609565734863
sg22
(lp2821
g2567
ag2568
asg26
I1
sg27
I1
sg28
Fnan
sg29
I0
sg30
F1490.373626947403
sg31
(F0.5
F0.5
tp2822
sg33
g2570
sg35
Fnan
sa(dp2823
g8
(I0
I1
tp2824
sg10
(lp2825
sg12
I398
sg13
g14
sg15
F2.5
sg16
I0
sg17
(lp2826
sg19
(lp2827
I5
aI4
asg21
F1.0149178504943848
sg22
(lp2828
g2567
ag2568
asg26
I1
sg27
I1
sg28
Fnan
sg29
I0
sg30
F1493.944363117218
sg31
(F0.5
F0.5
tp2829
sg33
g2570
sg35
Fnan
sa(dp2830
g8
(I0
I0
tp2831
sg10
(lp2832
sg12
I399
sg13
g14
sg15
F2.5
sg16
I0
sg17
(lp2833
sg19
(lp2834
I4
aI5
asg21
F2.1014959812164307
sg22
(lp2835
g2568
ag2567
asg26
I1
sg27
I1
sg28
Fnan
sg29
I1
sg30
F1497.5148429870605
sg31
(F0.5
F0.5
tp2836
sg33
g2570
sg35
Fnan
sa(dp2837
g8
(I0
I0
tp2838
sg10
(lp2839
sg12
I400
sg13
g14
sg15
F2.5
sg16
I0
sg17
(lp2840
sg19
(lp2841
I4
aI5
asg21
F1.1972091197967529
sg22
(lp2842
g2568
ag2567
asg26
I1
sg27
I1
sg28
Fnan
sg29
I0
sg30
F1501.0853011608124
sg31
(F0.5
F0.5
tp2843
sg33
g2570
sg35
Fnan
sa(dp2844
g8
(I0
I1
tp2845
sg10
(lp2846
sg12
I401
sg13
g14
sg15
F2.5
sg16
I0
sg17
(lp2847
sg19
(lp2848
I10
aI9
asg21
F1.0921328067779541
sg22
(lp2849
S'images/12.png'
p2850
aS'images/4.png'
p2851
asg26
I0
sg27
I1
sg28
Fnan
sg29
I0
sg30
F1504.6559021472931
sg31
(F0.5
F0.5
tp2852
sg33
(I9
I10
tp2853
sg35
Fnan
sa(dp2854
g8
(I0
I1
tp2855
sg10
(lp2856
sg12
I402
sg13
g14
sg15
F2.5
sg16
I0
sg17
(lp2857
sg19
(lp2858
I10
aI9
asg21
F1.0313351154327393
sg22
(lp2859
g2850
ag2851
asg26
I0
sg27
I1
sg28
Fnan
sg29
I0
sg30
F1508.2266099452972
sg31
(F0.5
F0.5
tp2860
sg33
g2853
sg35
Fnan
sa(dp2861
g8
(I0
I0
tp2862
sg10
(lp2863
sg12
I403
sg13
g14
sg15
F2.5
sg16
I0
sg17
(lp2864
sg19
(lp2865
I10
aI9
asg21
F0.92640805244445801
sg22
(lp2866
g2850
ag2851
asg26
I0
sg27
I1
sg28
Fnan
sg29
I0
sg30
F1511.7968921661377
sg31
(F0.5
F0.5
tp2867
sg33
g2853
sg35
Fnan
sa(dp2868
g8
(I0
I0
tp2869
sg10
(lp2870
sg12
I404
sg13
g14
sg15
F2.5
sg16
I0
sg17
(lp2871
sg19
(lp2872
I10
aI9
asg21
F0.58414196968078613
sg22
(lp2873
g2850
ag2851
asg26
I0
sg27
I1
sg28
Fnan
sg29
I0
sg30
F1515.3673141002655
sg31
(F0.5
F0.5
tp2874
sg33
g2853
sg35
Fnan
sa(dp2875
g8
(I1
I0
tp2876
sg10
(lp2877
sg12
I405
sg13
g14
sg15
F2.5
sg16
I0
sg17
(lp2878
sg19
(lp2879
I9
aI10
asg21
F0.45664191246032715
sg22
(lp2880
g2851
ag2850
asg26
I0
sg27
I1
sg28
Fnan
sg29
I1
sg30
F1518.9377870559692
sg31
(F0.5
F0.5
tp2881
sg33
g2853
sg35
Fnan
sa(dp2882
g8
(I1
I1
tp2883
sg10
(lp2884
sg12
I406
sg13
g14
sg15
F2.5
sg16
I1
sg17
(lp2885
sg19
(lp2886
I9
aI10
asg21
F0.5420379638671875
sg22
(lp2887
g2851
ag2850
asg26
I0
sg27
I1
sg28
Fnan
sg29
I1
sg30
F1522.5082409381866
sg31
(F0.5
F0.5
tp2888
sg33
g2853
sg35
Fnan
sa(dp2889
g8
(I1
I0
tp2890
sg10
(lp2891
sg12
I407
sg13
g14
sg15
F2.5
sg16
I1
sg17
(lp2892
sg19
(lp2893
I10
aI9
asg21
F0.7296450138092041
sg22
(lp2894
g2850
ag2851
asg26
I0
sg27
I1
sg28
Fnan
sg29
I0
sg30
F1526.0788969993591
sg31
(F0.5
F0.5
tp2895
sg33
g2853
sg35
Fnan
sa(dp2896
g8
(I1
I0
tp2897
sg10
(lp2898
sg12
I408
sg13
g14
sg15
F2.5
sg16
I0
sg17
(lp2899
sg19
(lp2900
I10
aI9
asg21
F1.1754238605499268
sg22
(lp2901
g2850
ag2851
asg26
I0
sg27
I1
sg28
Fnan
sg29
I1
sg30
F1529.6501891613007
sg31
(F0.5
F0.5
tp2902
sg33
g2853
sg35
Fnan
sa(dp2903
g8
(I0
I0
tp2904
sg10
(lp2905
sg12
I409
sg13
g14
sg15
F2.5
sg16
I0
sg17
(lp2906
sg19
(lp2907
I10
aI9
asg21
F1.1252279281616211
sg22
(lp2908
g2850
ag2851
asg26
I0
sg27
I1
sg28
Fnan
sg29
I1
sg30
F1533.2199959754944
sg31
(F0.5
F0.5
tp2909
sg33
g2853
sg35
Fnan
sa(dp2910
g8
(I1
I1
tp2911
sg10
(lp2912
sg12
I410
sg13
g14
sg15
F2.5
sg16
I1
sg17
(lp2913
sg19
(lp2914
I10
aI9
asg21
F0.32302284240722656
sg22
(lp2915
g2850
ag2851
asg26
I0
sg27
I1
sg28
Fnan
sg29
I0
sg30
F1536.7904200553894
sg31
(F0.5
F0.5
tp2916
sg33
g2853
sg35
Fnan
sa(dp2917
g8
(I1
I1
tp2918
sg10
(lp2919
sg12
I411
sg13
g14
sg15
F2.5
sg16
I1
sg17
(lp2920
sg19
(lp2921
I9
aI10
asg21
F0.39743185043334961
sg22
(lp2922
g2851
ag2850
asg26
I1
sg27
I1
sg28
Fnan
sg29
I1
sg30
F1540.3610510826111
sg31
(F0.5
F0.5
tp2923
sg33
g2853
sg35
Fnan
sa(dp2924
g8
(I1
I1
tp2925
sg10
(lp2926
sg12
I412
sg13
g14
sg15
F2.5
sg16
I1
sg17
(lp2927
sg19
(lp2928
I9
aI10
asg21
F0.49434900283813477
sg22
(lp2929
g2851
ag2850
asg26
I1
sg27
I1
sg28
Fnan
sg29
I1
sg30
F1543.9311549663544
sg31
(F0.5
F0.5
tp2930
sg33
g2853
sg35
Fnan
sa(dp2931
g8
(I1
I1
tp2932
sg10
(lp2933
sg12
I413
sg13
g14
sg15
F2.5
sg16
I1
sg17
(lp2934
sg19
(lp2935
I10
aI9
asg21
F0.47909402847290039
sg22
(lp2936
g2850
ag2851
asg26
I1
sg27
I1
sg28
Fnan
sg29
I0
sg30
F1547.5016181468964
sg31
(F0.5
F0.5
tp2937
sg33
g2853
sg35
Fnan
sa(dp2938
g8
(I0
I1
tp2939
sg10
(lp2940
sg12
I414
sg13
g14
sg15
F2.5
sg16
I1
sg17
(lp2941
sg19
(lp2942
I9
aI10
asg21
F0.45201587677001953
sg22
(lp2943
g2851
ag2850
asg26
I1
sg27
I1
sg28
Fnan
sg29
I1
sg30
F1551.0727751255035
sg31
(F0.5
F0.5
tp2944
sg33
g2853
sg35
Fnan
sa(dp2945
g8
(I0
I1
tp2946
sg10
(lp2947
sg12
I415
sg13
g14
sg15
F2.5
sg16
I0
sg17
(lp2948
sg19
(lp2949
I10
aI9
asg21
F0.49335193634033203
sg22
(lp2950
g2850
ag2851
asg26
I1
sg27
I1
sg28
Fnan
sg29
I0
sg30
F1554.6436281204224
sg31
(F0.5
F0.5
tp2951
sg33
g2853
sg35
Fnan
sa(dp2952
g8
(I0
I0
tp2953
sg10
(lp2954
sg12
I416
sg13
g14
sg15
F2.5
sg16
I0
sg17
(lp2955
sg19
(lp2956
I10
aI9
asg21
F0.91599893569946289
sg22
(lp2957
g2850
ag2851
asg26
I1
sg27
I1
sg28
Fnan
sg29
I1
sg30
F1558.2135820388794
sg31
(F0.5
F0.5
tp2958
sg33
g2853
sg35
Fnan
sa(dp2959
g8
(I0
I1
tp2960
sg10
(lp2961
sg12
I417
sg13
g14
sg15
F2.5
sg16
I1
sg17
(lp2962
sg19
(lp2963
I9
aI10
asg21
F0.57415509223937988
sg22
(lp2964
g2851
ag2850
asg26
I1
sg27
I1
sg28
Fnan
sg29
I1
sg30
F1561.7839291095734
sg31
(F0.5
F0.5
tp2965
sg33
g2853
sg35
Fnan
sa(dp2966
g8
(I1
I1
tp2967
sg10
(lp2968
sg12
I418
sg13
g14
sg15
F2.5
sg16
I1
sg17
(lp2969
sg19
(lp2970
I9
aI10
asg21
F0.53659796714782715
sg22
(lp2971
g2851
ag2850
asg26
I1
sg27
I1
sg28
Fnan
sg29
I1
sg30
F1565.3541810512543
sg31
(F0.5
F0.5
tp2972
sg33
g2853
sg35
Fnan
sa(dp2973
g8
(I1
I0
tp2974
sg10
(lp2975
sg12
I419
sg13
g14
sg15
F2.5
sg16
I0
sg17
(lp2976
sg19
(lp2977
I9
aI10
asg21
F0.53254795074462891
sg22
(lp2978
g2851
ag2850
asg26
I1
sg27
I1
sg28
Fnan
sg29
I1
sg30
F1568.9250731468201
sg31
(F0.5
F0.5
tp2979
sg33
g2853
sg35
Fnan
sa(dp2980
g8
(I1
I1
tp2981
sg10
(lp2982
sg12
I420
sg13
g14
sg15
F2.5
sg16
I1
sg17
(lp2983
sg19
(lp2984
I10
aI9
asg21
F0.55025410652160645
sg22
(lp2985
g2850
ag2851
asg26
I1
sg27
I1
sg28
Fnan
sg29
I0
sg30
F1572.4953129291534
sg31
(F0.5
F0.5
tp2986
sg33
g2853
sg35
Fnan
sa(dp2987
g8
(I0
I1
tp2988
sg10
(lp2989
sg12
I421
sg13
g14
sg15
F2.5
sg16
I1
sg17
(lp2990
sg19
(lp2991
I9
aI10
asg21
F0.78261208534240723
sg22
(lp2992
g2851
ag2850
asg26
I1
sg27
I1
sg28
Fnan
sg29
I1
sg30
F1576.0660381317139
sg31
(F0.5
F0.5
tp2993
sg33
g2853
sg35
Fnan
sa(dp2994
g8
(I1
I1
tp2995
sg10
(lp2996
sg12
I422
sg13
g14
sg15
F2.5
sg16
I1
sg17
(lp2997
sg19
(lp2998
I9
aI10
asg21
F0.85695195198059082
sg22
(lp2999
g2851
ag2850
asg26
I1
sg27
I1
sg28
Fnan
sg29
I1
sg30
F1579.6367080211639
sg31
(F0.5
F0.5
tp3000
sg33
g2853
sg35
Fnan
sa(dp3001
g8
(I0
I1
tp3002
sg10
(lp3003
sg12
I423
sg13
g14
sg15
F2.5
sg16
I0
sg17
(lp3004
sg19
(lp3005
I10
aI9
asg21
F1.460705041885376
sg22
(lp3006
g2850
ag2851
asg26
I1
sg27
I1
sg28
Fnan
sg29
I0
sg30
F1583.207426071167
sg31
(F0.5
F0.5
tp3007
sg33
g2853
sg35
Fnan
sa(dp3008
g8
(I0
I0
tp3009
sg10
(lp3010
sg12
I424
sg13
g14
sg15
F2.5
sg16
I0
sg17
(lp3011
sg19
(lp3012
I9
aI10
asg21
F1.3440060615539551
sg22
(lp3013
g2851
ag2850
asg26
I1
sg27
I1
sg28
Fnan
sg29
I1
sg30
F1586.7778179645538
sg31
(F0.5
F0.5
tp3014
sg33
g2853
sg35
Fnan
sa(dp3015
g8
(I0
I0
tp3016
sg10
(lp3017
sg12
I425
sg13
g14
sg15
F2.5
sg16
I0
sg17
(lp3018
sg19
(lp3019
I10
aI9
asg21
F0.61932921409606934
sg22
(lp3020
g2850
ag2851
asg26
I1
sg27
I1
sg28
Fnan
sg29
I0
sg30
F1590.3485651016235
sg31
(F0.5
F0.5
tp3021
sg33
g2853
sg35
Fnan
sa(dp3022
g8
(I0
I1
tp3023
sg10
(lp3024
sg12
I426
sg13
g14
sg15
F2.5
sg16
I0
sg17
(lp3025
sg19
(lp3026
I9
aI10
asg21
F1.0989959239959717
sg22
(lp3027
g2851
ag2850
asg26
I1
sg27
I1
sg28
Fnan
sg29
I0
sg30
F1593.9185049533844
sg31
(F0.5
F0.5
tp3028
sg33
g2853
sg35
Fnan
sa(dp3029
g8
(I1
I0
tp3030
sg10
(lp3031
sg12
I427
sg13
g14
sg15
F2.5
sg16
I1
sg17
(lp3032
sg19
(lp3033
I10
aI9
asg21
F0.50979804992675781
sg22
(lp3034
g2850
ag2851
asg26
I1
sg27
I1
sg28
Fnan
sg29
I0
sg30
F1597.488676071167
sg31
(F0.5
F0.5
tp3035
sg33
g2853
sg35
Fnan
sa(dp3036
g8
(I0
I1
tp3037
sg10
(lp3038
sg12
I428
sg13
g14
sg15
F2.5
sg16
I0
sg17
(lp3039
sg19
(lp3040
I10
aI9
asg21
F0.66324400901794434
sg22
(lp3041
g2850
ag2851
asg26
I1
sg27
I1
sg28
Fnan
sg29
I0
sg30
F1601.0594971179962
sg31
(F0.5
F0.5
tp3042
sg33
g2853
sg35
Fnan
sa(dp3043
g8
(I0
I1
tp3044
sg10
(lp3045
sg12
I429
sg13
g14
sg15
F2.5
sg16
I1
sg17
(lp3046
sg19
(lp3047
I9
aI10
asg21
F0.40006017684936523
sg22
(lp3048
g2851
ag2850
asg26
I1
sg27
I1
sg28
Fnan
sg29
I1
sg30
F1604.6299960613251
sg31
(F0.5
F0.5
tp3049
sg33
g2853
sg35
Fnan
sa(dp3050
g8
(I1
I1
tp3051
sg10
(lp3052
sg12
I430
sg13
g14
sg15
F2.5
sg16
I1
sg17
(lp3053
sg19
(lp3054
I10
aI9
asg21
F0.48626399040222168
sg22
(lp3055
g2850
ag2851
asg26
I1
sg27
I1
sg28
Fnan
sg29
I0
sg30
F1608.2002849578857
sg31
(F0.5
F0.5
tp3056
sg33
g2853
sg35
Fnan
sa(dp3057
g8
(I0
I1
tp3058
sg10
(lp3059
sg12
I431
sg13
g14
sg15
F2.5
sg16
I1
sg17
(lp3060
sg19
(lp3061
I9
aI10
asg21
F0.43686795234680176
sg22
(lp3062
g2851
ag2850
asg26
I1
sg27
I1
sg28
Fnan
sg29
I1
sg30
F1611.7708671092987
sg31
(F0.5
F0.5
tp3063
sg33
g2853
sg35
Fnan
sa(dp3064
g8
(I1
I0
tp3065
sg10
(lp3066
sg12
I432
sg13
g14
sg15
F2.5
sg16
I0
sg17
(lp3067
sg19
(lp3068
I9
aI10
asg21
F0.42089080810546875
sg22
(lp3069
g2851
ag2850
asg26
I1
sg27
I1
sg28
Fnan
sg29
I1
sg30
F1615.3413169384003
sg31
(F0.5
F0.5
tp3070
sg33
g2853
sg35
Fnan
sa(dp3071
g8
(I1
I1
tp3072
sg10
(lp3073
sg12
I433
sg13
g14
sg15
F2.5
sg16
I1
sg17
(lp3074
sg19
(lp3075
I9
aI10
asg21
F0.99065208435058594
sg22
(lp3076
g2851
ag2850
asg26
I1
sg27
I1
sg28
Fnan
sg29
I1
sg30
F1618.9118089675903
sg31
(F0.5
F0.5
tp3077
sg33
g2853
sg35
Fnan
sa(dp3078
g8
(I0
I1
tp3079
sg10
(lp3080
sg12
I434
sg13
g14
sg15
F2.5
sg16
I0
sg17
(lp3081
sg19
(lp3082
I10
aI9
asg21
F0.45792007446289062
sg22
(lp3083
g2850
ag2851
asg26
I1
sg27
I1
sg28
Fnan
sg29
I0
sg30
F1622.4830620288849
sg31
(F0.5
F0.5
tp3084
sg33
g2853
sg35
Fnan
sa(dp3085
g8
(I0
I0
tp3086
sg10
(lp3087
sg12
I435
sg13
g14
sg15
F2.5
sg16
I0
sg17
(lp3088
sg19
(lp3089
I9
aI10
asg21
F0.92613911628723145
sg22
(lp3090
g2851
ag2850
asg26
I1
sg27
I1
sg28
Fnan
sg29
I1
sg30
F1626.0529050827026
sg31
(F0.5
F0.5
tp3091
sg33
g2853
sg35
Fnan
sa(dp3092
g8
(I0
I0
tp3093
sg10
(lp3094
sg12
I436
sg13
g14
sg15
F2.5
sg16
I0
sg17
(lp3095
sg19
(lp3096
I9
aI10
asg21
F0.42681312561035156
sg22
(lp3097
g2851
ag2850
asg26
I1
sg27
I1
sg28
Fnan
sg29
I1
sg30
F1629.6234769821167
sg31
(F0.5
F0.5
tp3098
sg33
g2853
sg35
Fnan
sa(dp3099
g8
(I1
I0
tp3100
sg10
(lp3101
sg12
I437
sg13
g14
sg15
F2.5
sg16
I1
sg17
(lp3102
sg19
(lp3103
I9
aI10
asg21
F1.0975940227508545
sg22
(lp3104
g2851
ag2850
asg26
I1
sg27
I1
sg28
Fnan
sg29
I0
sg30
F1633.1937770843506
sg31
(F0.5
F0.5
tp3105
sg33
g2853
sg35
Fnan
sa(dp3106
g8
(I1
I1
tp3107
sg10
(lp3108
sg12
I438
sg13
g14
sg15
F2.5
sg16
I1
sg17
(lp3109
sg19
(lp3110
I9
aI10
asg21
F0.91322708129882812
sg22
(lp3111
g2851
ag2850
asg26
I1
sg27
I1
sg28
Fnan
sg29
I0
sg30
F1636.7643311023712
sg31
(F0.5
F0.5
tp3112
sg33
g2853
sg35
Fnan
sa(dp3113
g8
(I0
I0
tp3114
sg10
(lp3115
sg12
I439
sg13
g14
sg15
F2.5
sg16
I0
sg17
(lp3116
sg19
(lp3117
I10
aI9
asg21
F1.2127060890197754
sg22
(lp3118
g2850
ag2851
asg26
I1
sg27
I1
sg28
Fnan
sg29
I0
sg30
F1640.3353159427643
sg31
(F0.5
F0.5
tp3119
sg33
g2853
sg35
Fnan
sa(dp3120
g8
(I0
I1
tp3121
sg10
(lp3122
sg12
I440
sg13
g14
sg15
F2.5
sg16
I0
sg17
(lp3123
sg19
(lp3124
I10
aI9
asg21
F0.55613017082214355
sg22
(lp3125
g2850
ag2851
asg26
I1
sg27
I1
sg28
Fnan
sg29
I0
sg30
F1643.9053790569305
sg31
(F0.5
F0.5
tp3126
sg33
g2853
sg35
Fnan
sa(dp3127
g8
(I0
I0
tp3128
sg10
(lp3129
sg12
I441
sg13
g14
sg15
F2.5
sg16
I0
sg17
(lp3130
sg19
(lp3131
I14
aI0
asg21
F1.0583009719848633
sg22
(lp3132
S'images/8.png'
p3133
aS'images/1.png'
p3134
asg26
I0
sg27
I1
sg28
Fnan
sg29
I1
sg30
F1647.4760701656342
sg31
(F0.5
F0.5
tp3135
sg33
(I0
I14
tp3136
sg35
Fnan
sa(dp3137
g8
(I0
I0
tp3138
sg10
(lp3139
sg12
I442
sg13
g14
sg15
F2.5
sg16
I0
sg17
(lp3140
sg19
(lp3141
I14
aI0
asg21
F0.33385109901428223
sg22
(lp3142
g3133
ag3134
asg26
I0
sg27
I1
sg28
Fnan
sg29
I0
sg30
F1651.0465941429138
sg31
(F0.5
F0.5
tp3143
sg33
g3136
sg35
Fnan
sa(dp3144
g8
(I0
I0
tp3145
sg10
(lp3146
sg12
I443
sg13
g14
sg15
F2.5
sg16
I0
sg17
(lp3147
sg19
(lp3148
I0
aI14
asg21
F0.55456399917602539
sg22
(lp3149
g3134
ag3133
asg26
I0
sg27
I1
sg28
Fnan
sg29
I0
sg30
F1654.6168971061707
sg31
(F0.5
F0.5
tp3150
sg33
g3136
sg35
Fnan
sa(dp3151
g8
(I0
I1
tp3152
sg10
(lp3153
sg12
I444
sg13
g14
sg15
F2.5
sg16
I0
sg17
(lp3154
sg19
(lp3155
I0
aI14
asg21
F0.70770907402038574
sg22
(lp3156
g3134
ag3133
asg26
I0
sg27
I1
sg28
Fnan
sg29
I0
sg30
F1658.1874749660492
sg31
(F0.5
F0.5
tp3157
sg33
g3136
sg35
Fnan
sa(dp3158
g8
(I0
I0
tp3159
sg10
(lp3160
sg12
I445
sg13
g14
sg15
F2.5
sg16
I0
sg17
(lp3161
sg19
(lp3162
I14
aI0
asg21
F0.42248916625976562
sg22
(lp3163
g3133
ag3134
asg26
I0
sg27
I1
sg28
Fnan
sg29
I1
sg30
F1661.7580449581146
sg31
(F0.5
F0.5
tp3164
sg33
g3136
sg35
Fnan
sa(dp3165
g8
(I1
I1
tp3166
sg10
(lp3167
sg12
I446
sg13
g14
sg15
F2.5
sg16
I1
sg17
(lp3168
sg19
(lp3169
I0
aI14
asg21
F0.38492798805236816
sg22
(lp3170
g3134
ag3133
asg26
I0
sg27
I1
sg28
Fnan
sg29
I0
sg30
F1665.3287060260773
sg31
(F0.5
F0.5
tp3171
sg33
g3136
sg35
Fnan
sa(dp3172
g8
(I1
I0
tp3173
sg10
(lp3174
sg12
I447
sg13
g14
sg15
F2.5
sg16
I0
sg17
(lp3175
sg19
(lp3176
I14
aI0
asg21
F0.53794217109680176
sg22
(lp3177
g3133
ag3134
asg26
I0
sg27
I1
sg28
Fnan
sg29
I1
sg30
F1668.898824930191
sg31
(F0.5
F0.5
tp3178
sg33
g3136
sg35
Fnan
sa(dp3179
g8
(I0
I1
tp3180
sg10
(lp3181
sg12
I448
sg13
g14
sg15
F2.5
sg16
I1
sg17
(lp3182
sg19
(lp3183
I14
aI0
asg21
F0.42104196548461914
sg22
(lp3184
g3133
ag3134
asg26
I0
sg27
I1
sg28
Fnan
sg29
I1
sg30
F1672.4694211483002
sg31
(F0.5
F0.5
tp3185
sg33
g3136
sg35
Fnan
sa(dp3186
g8
(I1
I1
tp3187
sg10
(lp3188
sg12
I449
sg13
g14
sg15
F2.5
sg16
I1
sg17
(lp3189
sg19
(lp3190
I0
aI14
asg21
F0.38334798812866211
sg22
(lp3191
g3134
ag3133
asg26
I0
sg27
I1
sg28
Fnan
sg29
I0
sg30
F1676.0402600765228
sg31
(F0.5
F0.5
tp3192
sg33
g3136
sg35
Fnan
sa(dp3193
g8
(I0
I0
tp3194
sg10
(lp3195
sg12
I450
sg13
g14
sg15
F2.5
sg16
I0
sg17
(lp3196
sg19
(lp3197
I0
aI14
asg21
F0.34507489204406738
sg22
(lp3198
g3134
ag3133
asg26
I0
sg27
I1
sg28
Fnan
sg29
I0
sg30
F1679.610671043396
sg31
(F0.5
F0.5
tp3199
sg33
g3136
sg35
Fnan
sa(dp3200
g8
(I1
I1
tp3201
sg10
(lp3202
sg12
I451
sg13
g14
sg15
F2.5
sg16
I1
sg17
(lp3203
sg19
(lp3204
I0
aI14
asg21
F0.37494611740112305
sg22
(lp3205
g3134
ag3133
asg26
I1
sg27
I1
sg28
Fnan
sg29
I0
sg30
F1683.1809511184692
sg31
(F0.5
F0.5
tp3206
sg33
g3136
sg35
Fnan
sa(dp3207
g8
(I0
I1
tp3208
sg10
(lp3209
sg12
I452
sg13
g14
sg15
F2.5
sg16
I1
sg17
(lp3210
sg19
(lp3211
I14
aI0
asg21
F0.39324212074279785
sg22
(lp3212
g3133
ag3134
asg26
I1
sg27
I1
sg28
Fnan
sg29
I1
sg30
F1686.7514340877533
sg31
(F0.5
F0.5
tp3213
sg33
g3136
sg35
Fnan
sa(dp3214
g8
(I0
I0
tp3215
sg10
(lp3216
sg12
I453
sg13
g14
sg15
F2.5
sg16
I0
sg17
(lp3217
sg19
(lp3218
I0
aI14
asg21
F0.4000699520111084
sg22
(lp3219
g3134
ag3133
asg26
I1
sg27
I1
sg28
Fnan
sg29
I0
sg30
F1690.3222630023956
sg31
(F0.5
F0.5
tp3220
sg33
g3136
sg35
Fnan
sa(dp3221
g8
(I0
I1
tp3222
sg10
(lp3223
sg12
I454
sg13
g14
sg15
F2.5
sg16
I1
sg17
(lp3224
sg19
(lp3225
I0
aI14
asg21
F0.62082099914550781
sg22
(lp3226
g3134
ag3133
asg26
I1
sg27
I1
sg28
Fnan
sg29
I1
sg30
F1693.8926451206207
sg31
(F0.5
F0.5
tp3227
sg33
g3136
sg35
Fnan
sa(dp3228
g8
(I0
I0
tp3229
sg10
(lp3230
sg12
I455
sg13
g14
sg15
F2.5
sg16
I0
sg17
(lp3231
sg19
(lp3232
I0
aI14
asg21
F1.0210771560668945
sg22
(lp3233
g3134
ag3133
asg26
I1
sg27
I1
sg28
Fnan
sg29
I1
sg30
F1697.463103055954
sg31
(F0.5
F0.5
tp3234
sg33
g3136
sg35
Fnan
sa(dp3235
g8
(I1
I0
tp3236
sg10
(lp3237
sg12
I456
sg13
g14
sg15
F2.5
sg16
I0
sg17
(lp3238
sg19
(lp3239
I14
aI0
asg21
F1.5346419811248779
sg22
(lp3240
g3133
ag3134
asg26
I1
sg27
I1
sg28
Fnan
sg29
I1
sg30
F1701.0334680080414
sg31
(F0.5
F0.5
tp3241
sg33
g3136
sg35
Fnan
sa(dp3242
g8
(I0
I1
tp3243
sg10
(lp3244
sg12
I457
sg13
g14
sg15
F2.5
sg16
I0
sg17
(lp3245
sg19
(lp3246
I0
aI14
asg21
F0.46135902404785156
sg22
(lp3247
g3134
ag3133
asg26
I1
sg27
I1
sg28
Fnan
sg29
I0
sg30
F1704.6042850017548
sg31
(F0.5
F0.5
tp3248
sg33
g3136
sg35
Fnan
sa(dp3249
g8
(I1
I0
tp3250
sg10
(lp3251
sg12
I458
sg13
g14
sg15
F2.5
sg16
I1
sg17
(lp3252
sg19
(lp3253
I0
aI14
asg21
F1.4812300205230713
sg22
(lp3254
g3134
ag3133
asg26
I1
sg27
I1
sg28
Fnan
sg29
I0
sg30
F1708.1747159957886
sg31
(F0.5
F0.5
tp3255
sg33
g3136
sg35
Fnan
sa(dp3256
g8
(I1
I1
tp3257
sg10
(lp3258
sg12
I459
sg13
g14
sg15
F2.5
sg16
I1
sg17
(lp3259
sg19
(lp3260
I14
aI0
asg21
F1.3984298706054688
sg22
(lp3261
g3133
ag3134
asg26
I1
sg27
I1
sg28
Fnan
sg29
I0
sg30
F1711.7459149360657
sg31
(F0.5
F0.5
tp3262
sg33
g3136
sg35
Fnan
sa(dp3263
g8
(I1
I1
tp3264
sg10
(lp3265
sg12
I460
sg13
g14
sg15
F2.5
sg16
I1
sg17
(lp3266
sg19
(lp3267
I14
aI0
asg21
F0.93291211128234863
sg22
(lp3268
g3133
ag3134
asg26
I1
sg27
I1
sg28
Fnan
sg29
I0
sg30
F1715.3157999515533
sg31
(F0.5
F0.5
tp3269
sg33
g3136
sg35
Fnan
sa(dp3270
g8
(I0
I1
tp3271
sg10
(lp3272
sg12
I461
sg13
g14
sg15
F2.5
sg16
I0
sg17
(lp3273
sg19
(lp3274
I14
aI0
asg21
F0.64754009246826172
sg22
(lp3275
g3133
ag3134
asg26
I1
sg27
I1
sg28
Fnan
sg29
I0
sg30
F1718.8863930702209
sg31
(F0.5
F0.5
tp3276
sg33
g3136
sg35
Fnan
sa(dp3277
g8
(I0
I1
tp3278
sg10
(lp3279
sg12
I462
sg13
g14
sg15
F2.5
sg16
I0
sg17
(lp3280
sg19
(lp3281
I0
aI14
asg21
F1.4868600368499756
sg22
(lp3282
g3134
ag3133
asg26
I1
sg27
I1
sg28
Fnan
sg29
I0
sg30
F1722.4565169811249
sg31
(F0.5
F0.5
tp3283
sg33
g3136
sg35
Fnan
sa(dp3284
g8
(I1
I0
tp3285
sg10
(lp3286
sg12
I463
sg13
g14
sg15
F2.5
sg16
I0
sg17
(lp3287
sg19
(lp3288
I0
aI14
asg21
F1.6402649879455566
sg22
(lp3289
g3134
ag3133
asg26
I1
sg27
I1
sg28
Fnan
sg29
I1
sg30
F1726.0272040367126
sg31
(F0.5
F0.5
tp3290
sg33
g3136
sg35
Fnan
sa(dp3291
g8
(I1
I0
tp3292
sg10
(lp3293
sg12
I464
sg13
g14
sg15
F2.5
sg16
I1
sg17
(lp3294
sg19
(lp3295
I14
aI0
asg21
F0.7807009220123291
sg22
(lp3296
g3133
ag3134
asg26
I1
sg27
I1
sg28
Fnan
sg29
I0
sg30
F1729.597715139389
sg31
(F0.5
F0.5
tp3297
sg33
g3136
sg35
Fnan
sa(dp3298
g8
(I0
I1
tp3299
sg10
(lp3300
sg12
I465
sg13
g14
sg15
F2.5
sg16
I1
sg17
(lp3301
sg19
(lp3302
I0
aI14
asg21
F1.1210141181945801
sg22
(lp3303
g3134
ag3133
asg26
I1
sg27
I1
sg28
Fnan
sg29
I1
sg30
F1733.251601934433
sg31
(F0.5
F0.5
tp3304
sg33
g3136
sg35
Fnan
sa(dp3305
g8
(I0
I0
tp3306
sg10
(lp3307
sg12
I466
sg13
g14
sg15
F2.5
sg16
I0
sg17
(lp3308
sg19
(lp3309
I14
aI0
asg21
F0.72265386581420898
sg22
(lp3310
g3133
ag3134
asg26
I1
sg27
I1
sg28
Fnan
sg29
I0
sg30
F1736.8219320774078
sg31
(F0.5
F0.5
tp3311
sg33
g3136
sg35
Fnan
sa(dp3312
g8
(I0
I0
tp3313
sg10
(lp3314
sg12
I467
sg13
g14
sg15
F2.5
sg16
I0
sg17
(lp3315
sg19
(lp3316
I14
aI0
asg21
F0.51614999771118164
sg22
(lp3317
g3133
ag3134
asg26
I1
sg27
I1
sg28
Fnan
sg29
I0
sg30
F1740.3925199508667
sg31
(F0.5
F0.5
tp3318
sg33
g3136
sg35
Fnan
sa(dp3319
g8
(I0
I0
tp3320
sg10
(lp3321
sg12
I468
sg13
g14
sg15
F2.5
sg16
I0
sg17
(lp3322
sg19
(lp3323
I14
aI0
asg21
F0.73700499534606934
sg22
(lp3324
g3133
ag3134
asg26
I1
sg27
I1
sg28
Fnan
sg29
I1
sg30
F1743.9628140926361
sg31
(F0.5
F0.5
tp3325
sg33
g3136
sg35
Fnan
sa(dp3326
g8
(I1
I1
tp3327
sg10
(lp3328
sg12
I469
sg13
g14
sg15
F2.5
sg16
I1
sg17
(lp3329
sg19
(lp3330
I14
aI0
asg21
F0.80066609382629395
sg22
(lp3331
g3133
ag3134
asg26
I1
sg27
I1
sg28
Fnan
sg29
I0
sg30
F1747.5337979793549
sg31
(F0.5
F0.5
tp3332
sg33
g3136
sg35
Fnan
sa(dp3333
g8
(I0
I1
tp3334
sg10
(lp3335
sg12
I470
sg13
g14
sg15
F2.5
sg16
I0
sg17
(lp3336
sg19
(lp3337
I0
aI14
asg21
F1.5833091735839844
sg22
(lp3338
g3134
ag3133
asg26
I1
sg27
I1
sg28
Fnan
sg29
I0
sg30
F1751.1044249534607
sg31
(F0.5
F0.5
tp3339
sg33
g3136
sg35
Fnan
sa(dp3340
g8
(I1
I1
tp3341
sg10
(lp3342
sg12
I471
sg13
g14
sg15
F2.5
sg16
I1
sg17
(lp3343
sg19
(lp3344
I14
aI0
asg21
F0.47655797004699707
sg22
(lp3345
g3133
ag3134
asg26
I1
sg27
I1
sg28
Fnan
sg29
I0
sg30
F1754.6747069358826
sg31
(F0.5
F0.5
tp3346
sg33
g3136
sg35
Fnan
sa(dp3347
g8
(I0
I1
tp3348
sg10
(lp3349
sg12
I472
sg13
g14
sg15
F2.5
sg16
I1
sg17
(lp3350
sg19
(lp3351
I0
aI14
asg21
F0.56246209144592285
sg22
(lp3352
g3134
ag3133
asg26
I1
sg27
I1
sg28
Fnan
sg29
I1
sg30
F1758.2452731132507
sg31
(F0.5
F0.5
tp3353
sg33
g3136
sg35
Fnan
sa(dp3354
g8
(I1
I0
tp3355
sg10
(lp3356
sg12
I473
sg13
g14
sg15
F2.5
sg16
I1
sg17
(lp3357
sg19
(lp3358
I14
aI0
asg21
F0.45703291893005371
sg22
(lp3359
g3133
ag3134
asg26
I1
sg27
I1
sg28
Fnan
sg29
I0
sg30
F1761.8157980442047
sg31
(F0.5
F0.5
tp3360
sg33
g3136
sg35
Fnan
sa(dp3361
g8
(I0
I0
tp3362
sg10
(lp3363
sg12
I474
sg13
g14
sg15
F2.5
sg16
I0
sg17
(lp3364
sg19
(lp3365
I0
aI14
asg21
F0.55436205863952637
sg22
(lp3366
g3134
ag3133
asg26
I1
sg27
I1
sg28
Fnan
sg29
I1
sg30
F1765.3861601352692
sg31
(F0.5
F0.5
tp3367
sg33
g3136
sg35
Fnan
sa(dp3368
g8
(I0
I1
tp3369
sg10
(lp3370
sg12
I475
sg13
g14
sg15
F2.5
sg16
I0
sg17
(lp3371
sg19
(lp3372
I14
aI0
asg21
F0.36978721618652344
sg22
(lp3373
g3133
ag3134
asg26
I1
sg27
I1
sg28
Fnan
sg29
I0
sg30
F1768.9566309452057
sg31
(F0.5
F0.5
tp3374
sg33
g3136
sg35
Fnan
sa(dp3375
g8
(I1
I1
tp3376
sg10
(lp3377
sg12
I476
sg13
g14
sg15
F2.5
sg16
I1
sg17
(lp3378
sg19
(lp3379
I14
aI0
asg21
F0.38762497901916504
sg22
(lp3380
g3133
ag3134
asg26
I1
sg27
I1
sg28
Fnan
sg29
I0
sg30
F1772.527193069458
sg31
(F0.5
F0.5
tp3381
sg33
g3136
sg35
Fnan
sa(dp3382
g8
(I0
I1
tp3383
sg10
(lp3384
sg12
I477
sg13
g14
sg15
F2.5
sg16
I1
sg17
(lp3385
sg19
(lp3386
I0
aI14
asg21
F0.9689328670501709
sg22
(lp3387
g3134
ag3133
asg26
I1
sg27
I1
sg28
Fnan
sg29
I1
sg30
F1776.0976541042328
sg31
(F0.5
F0.5
tp3388
sg33
g3136
sg35
Fnan
sa(dp3389
g8
(I0
I1
tp3390
sg10
(lp3391
sg12
I478
sg13
g14
sg15
F2.5
sg16
I0
sg17
(lp3392
sg19
(lp3393
I14
aI0
asg21
F0.50350713729858398
sg22
(lp3394
g3133
ag3134
asg26
I1
sg27
I1
sg28
Fnan
sg29
I0
sg30
F1779.6681680679321
sg31
(F0.5
F0.5
tp3395
sg33
g3136
sg35
Fnan
sa(dp3396
g8
(I1
I0
tp3397
sg10
(lp3398
sg12
I479
sg13
g14
sg15
F2.5
sg16
I0
sg17
(lp3399
sg19
(lp3400
I0
aI14
asg21
F1.6467618942260742
sg22
(lp3401
g3134
ag3133
asg26
I1
sg27
I1
sg28
Fnan
sg29
I1
sg30
F1783.2384951114655
sg31
(F0.5
F0.5
tp3402
sg33
g3136
sg35
Fnan
sa(dp3403
g8
(I1
I0
tp3404
sg10
(lp3405
sg12
I480
sg13
g14
sg15
F2.5
sg16
I1
sg17
(lp3406
sg19
(lp3407
I0
aI14
asg21
F1.2489540576934814
sg22
(lp3408
g3134
ag3133
asg26
I1
sg27
I1
sg28
Fnan
sg29
I0
sg30
F1786.8094780445099
sg31
(F0.5
F0.5
tp3409
sg33
g3136
sg35
Fnan
sasS'timestamp'
p3410
S'2018-01-16_13-31-26'
p3411
sS'taskdata'
p3412
(dp3413
g22
(lp3414
g3134
ag25
ag877
ag1732
ag2568
ag2567
ag56
ag876
ag1722
ag2851
ag2850
ag24
ag886
ag1723
ag3133
asg31
(dp3415
I0
F0.5
sI1
F0.10000000000000001
sI2
F0.111
sI3
F0.105
sI4
F0.5
sI5
F0.5
sI6
F0.44900000000000001
sI7
F0.44900000000000001
sI8
F0.44900000000000001
sI9
F0.5
sI10
F0.5
sI11
F0.88900000000000001
sI12
F0.89600000000000002
sI13
F0.90000000000000002
sI14
F0.5
ssS'action_keys'
p3416
(lp3417
S'left'
p3418
aS'right'
p3419
ass.