(dp1
S'total_points'
p2
I346
sS'subjid'
p3
S'606'
p4
sS'RLdata'
p5
(lp6
(dp7
S'rewards'
p8
(lp9
I1
aI0
asS'secondary_responses'
p10
(lp11
sS'trialnum'
p12
I1
sS'exp_stage'
p13
S'RL_task'
p14
sS'duration'
p15
I2
sS'rewarded'
p16
I1
sS'secondary_rts'
p17
(lp18
sS'stim_indices'
p19
(lp20
I2
aI11
asS'rt'
p21
F1.7196650505065918
sS'stim_files'
p22
(lp23
S'images/7.png'
p24
aS'images/9.png'
p25
asS'feedback_duration'
p26
I1
sS'correct_choice'
p27
I0
sS'response'
p28
I0
sS'onset'
p29
F2.0513789653778076
sS'values'
p30
(lp31
F0.88900000000000001
aF0.48099999999999998
asS'stim_set'
p32
(lp33
I1
aI2
aI6
aI7
aI11
aI12
asS'correct'
p34
I01
sa(dp35
g8
(lp36
I1
aI0
asg10
(lp37
sg12
I2
sg13
g14
sg15
I2
sg16
I1
sg17
(lp38
sg19
(lp39
I2
aI6
asg21
F1.8791990280151367
sg22
(lp40
g24
aS'images/2.png'
p41
asg26
I1
sg27
I0
sg28
I0
sg29
F5.1560540199279785
sg30
(lp42
F0.88900000000000001
aF0.060999999999999999
asg32
g33
sg34
I01
sa(dp43
g8
(lp44
I0
aI0
asg10
(lp45
sg12
I3
sg13
g14
sg15
I2
sg16
Fnan
sg17
(lp46
sg19
(lp47
I6
aI11
asg21
Fnan
sg22
(lp48
g41
ag25
asg26
I1
sg27
I1
sg28
Fnan
sg29
F8.2249250411987305
sg30
(lp49
F0.060999999999999999
aF0.48099999999999998
asg32
g33
sa(dp50
g8
(lp51
I0
aI0
asg10
(lp52
sg12
I4
sg13
g14
sg15
I2
sg16
I0
sg17
(lp53
sg19
(lp54
I6
aI7
asg21
F0.90873312950134277
sg22
(lp55
g41
aS'images/5.png'
p56
asg26
I1
sg27
I0
sg28
I1
sg29
F11.311701059341431
sg30
(lp57
F0.060999999999999999
aF0.050000000000000003
asg32
g33
sg34
I00
sa(dp58
g8
(lp59
I1
aI0
asg10
(lp60
sg12
I5
sg13
g14
sg15
I2
sg16
I0
sg17
(lp61
sg19
(lp62
I1
aI7
asg21
F1.3708949089050293
sg22
(lp63
S'images/6.png'
p64
ag56
asg26
I1
sg27
I0
sg28
I1
sg29
F14.381472110748291
sg30
(lp65
F0.90000000000000002
aF0.050000000000000003
asg32
g33
sg34
I00
sa(dp66
g8
(lp67
I1
aI1
asg10
(lp68
sg12
I6
sg13
g14
sg15
I2
sg16
I1
sg17
(lp69
sg19
(lp70
I11
aI2
asg21
F1.0798230171203613
sg22
(lp71
g25
ag24
asg26
I1
sg27
I1
sg28
I1
sg29
F17.451555013656616
sg30
(lp72
F0.48099999999999998
aF0.88900000000000001
asg32
g33
sg34
I01
sa(dp73
g8
(lp74
I1
aI1
asg10
(lp75
sg12
I7
sg13
g14
sg15
I2
sg16
I1
sg17
(lp76
sg19
(lp77
I2
aI12
asg21
F0.57456111907958984
sg22
(lp78
g24
aS'images/12.png'
p79
asg26
I1
sg27
I0
sg28
I0
sg29
F20.521837949752808
sg30
(lp80
F0.88900000000000001
aF0.48099999999999998
asg32
g33
sg34
I01
sa(dp81
g8
(lp82
I0
aI0
asg10
(lp83
sg12
I8
sg13
g14
sg15
I2
sg16
I0
sg17
(lp84
sg19
(lp85
I7
aI12
asg21
F1.4199619293212891
sg22
(lp86
g56
ag79
asg26
I1
sg27
I1
sg28
I0
sg29
F23.591372966766357
sg30
(lp87
F0.050000000000000003
aF0.48099999999999998
asg32
g33
sg34
I00
sa(dp88
g8
(lp89
I1
aI1
asg10
(lp90
sg12
I9
sg13
g14
sg15
I2
sg16
I1
sg17
(lp91
sg19
(lp92
I11
aI12
asg21
F1.6801490783691406
sg22
(lp93
g25
ag79
asg26
I1
sg27
I0
sg28
I1
sg29
F26.661816120147705
sg30
(lp94
F0.48099999999999998
aF0.48099999999999998
asg32
g33
sg34
I00
sa(dp95
g8
(lp96
I0
aI0
asg10
(lp97
sg12
I10
sg13
g14
sg15
I2
sg16
I0
sg17
(lp98
sg19
(lp99
I7
aI12
asg21
F0.68001008033752441
sg22
(lp100
g56
ag79
asg26
I1
sg27
I1
sg28
I1
sg29
F29.731591939926147
sg30
(lp101
F0.050000000000000003
aF0.48099999999999998
asg32
g33
sg34
I01
sa(dp102
g8
(lp103
I0
aI0
asg10
(lp104
sg12
I11
sg13
g14
sg15
I2
sg16
I0
sg17
(lp105
sg19
(lp106
I11
aI6
asg21
F1.345318078994751
sg22
(lp107
g25
ag41
asg26
I1
sg27
I0
sg28
I0
sg29
F32.801716089248657
sg30
(lp108
F0.48099999999999998
aF0.060999999999999999
asg32
g33
sg34
I01
sa(dp109
g8
(lp110
I1
aI0
asg10
(lp111
sg12
I12
sg13
g14
sg15
I2
sg16
I0
sg17
(lp112
sg19
(lp113
I12
aI6
asg21
F1.0877821445465088
sg22
(lp114
g79
ag41
asg26
I1
sg27
I0
sg28
I1
sg29
F35.871522903442383
sg30
(lp115
F0.48099999999999998
aF0.060999999999999999
asg32
g33
sg34
I00
sa(dp116
g8
(lp117
I1
aI0
asg10
(lp118
sg12
I13
sg13
g14
sg15
I2
sg16
I1
sg17
(lp119
sg19
(lp120
I2
aI7
asg21
F0.80707097053527832
sg22
(lp121
g24
ag56
asg26
I1
sg27
I0
sg28
I0
sg29
F38.941704034805298
sg30
(lp122
F0.88900000000000001
aF0.050000000000000003
asg32
g33
sg34
I01
sa(dp123
g8
(lp124
I0
aI1
asg10
(lp125
sg12
I14
sg13
g14
sg15
I2
sg16
I1
sg17
(lp126
sg19
(lp127
I7
aI12
asg21
F1.0455780029296875
sg22
(lp128
g56
ag79
asg26
I1
sg27
I1
sg28
I1
sg29
F42.011776924133301
sg30
(lp129
F0.050000000000000003
aF0.48099999999999998
asg32
g33
sg34
I01
sa(dp130
g8
(lp131
I1
aI1
asg10
(lp132
sg12
I15
sg13
g14
sg15
I2
sg16
I1
sg17
(lp133
sg19
(lp134
I2
aI1
asg21
F1.0128710269927979
sg22
(lp135
g24
ag64
asg26
I1
sg27
I1
sg28
I0
sg29
F45.081201076507568
sg30
(lp136
F0.88900000000000001
aF0.90000000000000002
asg32
g33
sg34
I00
sa(dp137
g8
(lp138
I0
aI0
asg10
(lp139
sg12
I16
sg13
g14
sg15
I2
sg16
I0
sg17
(lp140
sg19
(lp141
I11
aI7
asg21
F1.0143139362335205
sg22
(lp142
g25
ag56
asg26
I1
sg27
I0
sg28
I1
sg29
F48.151731014251709
sg30
(lp143
F0.48099999999999998
aF0.050000000000000003
asg32
g33
sg34
I00
sa(dp144
g8
(lp145
I0
aI1
asg10
(lp146
sg12
I17
sg13
g14
sg15
I2
sg16
I0
sg17
(lp147
sg19
(lp148
I7
aI12
asg21
F1.0715899467468262
sg22
(lp149
g56
ag79
asg26
I1
sg27
I1
sg28
I0
sg29
F51.221333980560303
sg30
(lp150
F0.050000000000000003
aF0.48099999999999998
asg32
g33
sg34
I00
sa(dp151
g8
(lp152
I0
aI1
asg10
(lp153
sg12
I18
sg13
g14
sg15
I2
sg16
I0
sg17
(lp154
sg19
(lp155
I12
aI7
asg21
F1.2533700466156006
sg22
(lp156
g79
ag56
asg26
I1
sg27
I0
sg28
I0
sg29
F54.291177034378052
sg30
(lp157
F0.48099999999999998
aF0.050000000000000003
asg32
g33
sg34
I01
sa(dp158
g8
(lp159
I0
aI1
asg10
(lp160
sg12
I19
sg13
g14
sg15
I2
sg16
I1
sg17
(lp161
sg19
(lp162
I6
aI11
asg21
F1.3212449550628662
sg22
(lp163
g41
ag25
asg26
I1
sg27
I1
sg28
I1
sg29
F57.36126708984375
sg30
(lp164
F0.060999999999999999
aF0.48099999999999998
asg32
g33
sg34
I01
sa(dp165
g8
(lp166
I1
aI0
asg10
(lp167
sg12
I20
sg13
g14
sg15
I2
sg16
I0
sg17
(lp168
sg19
(lp169
I12
aI7
asg21
F1.1996119022369385
sg22
(lp170
g79
ag56
asg26
I1
sg27
I0
sg28
I1
sg29
F60.431674003601074
sg30
(lp171
F0.48099999999999998
aF0.050000000000000003
asg32
g33
sg34
I00
sa(dp172
g8
(lp173
I0
aI1
asg10
(lp174
sg12
I21
sg13
g14
sg15
I2
sg16
I1
sg17
(lp175
sg19
(lp176
I11
aI2
asg21
F0.7615821361541748
sg22
(lp177
g25
ag24
asg26
I1
sg27
I1
sg28
I1
sg29
F63.501245975494385
sg30
(lp178
F0.48099999999999998
aF0.88900000000000001
asg32
g33
sg34
I01
sa(dp179
g8
(lp180
I1
aI0
asg10
(lp181
sg12
I22
sg13
g14
sg15
I2
sg16
I1
sg17
(lp182
sg19
(lp183
I2
aI7
asg21
F0.77451705932617188
sg22
(lp184
g24
ag56
asg26
I1
sg27
I0
sg28
I0
sg29
F66.570955038070679
sg30
(lp185
F0.88900000000000001
aF0.050000000000000003
asg32
g33
sg34
I01
sa(dp186
g8
(lp187
I0
aI0
asg10
(lp188
sg12
I23
sg13
g14
sg15
I2
sg16
I0
sg17
(lp189
sg19
(lp190
I12
aI7
asg21
F1.0906779766082764
sg22
(lp191
g79
ag56
asg26
I1
sg27
I0
sg28
I0
sg29
F69.641247987747192
sg30
(lp192
F0.48099999999999998
aF0.050000000000000003
asg32
g33
sg34
I01
sa(dp193
g8
(lp194
I0
aI1
asg10
(lp195
sg12
I24
sg13
g14
sg15
I2
sg16
I1
sg17
(lp196
sg19
(lp197
I12
aI1
asg21
F0.87887907028198242
sg22
(lp198
g79
ag64
asg26
I1
sg27
I1
sg28
I1
sg29
F72.711055994033813
sg30
(lp199
F0.48099999999999998
aF0.90000000000000002
asg32
g33
sg34
I01
sa(dp200
g8
(lp201
I0
aI0
asg10
(lp202
sg12
I25
sg13
g14
sg15
I2
sg16
I0
sg17
(lp203
sg19
(lp204
I6
aI12
asg21
F1.2396810054779053
sg22
(lp205
g41
ag79
asg26
I1
sg27
I1
sg28
I0
sg29
F75.780944108963013
sg30
(lp206
F0.060999999999999999
aF0.48099999999999998
asg32
g33
sg34
I00
sa(dp207
g8
(lp208
I1
aI1
asg10
(lp209
sg12
I26
sg13
g14
sg15
I2
sg16
I1
sg17
(lp210
sg19
(lp211
I1
aI2
asg21
F0.81365108489990234
sg22
(lp212
g64
ag24
asg26
I1
sg27
I0
sg28
I1
sg29
F78.851048946380615
sg30
(lp213
F0.90000000000000002
aF0.88900000000000001
asg32
g33
sg34
I00
sa(dp214
g8
(lp215
I1
aI0
asg10
(lp216
sg12
I27
sg13
g14
sg15
I2
sg16
I1
sg17
(lp217
sg19
(lp218
I1
aI6
asg21
F1.0059318542480469
sg22
(lp219
g64
ag41
asg26
I1
sg27
I0
sg28
I0
sg29
F81.920922040939331
sg30
(lp220
F0.90000000000000002
aF0.060999999999999999
asg32
g33
sg34
I01
sa(dp221
g8
(lp222
I1
aI0
asg10
(lp223
sg12
I28
sg13
g14
sg15
I2
sg16
I1
sg17
(lp224
sg19
(lp225
I1
aI7
asg21
F0.80533409118652344
sg22
(lp226
g64
ag56
asg26
I1
sg27
I0
sg28
I0
sg29
F84.990853071212769
sg30
(lp227
F0.90000000000000002
aF0.050000000000000003
asg32
g33
sg34
I01
sa(dp228
g8
(lp229
I0
aI0
asg10
(lp230
sg12
I29
sg13
g14
sg15
I2
sg16
I0
sg17
(lp231
sg19
(lp232
I12
aI6
asg21
F1.1438770294189453
sg22
(lp233
g79
ag41
asg26
I1
sg27
I0
sg28
I1
sg29
F88.060741901397705
sg30
(lp234
F0.48099999999999998
aF0.060999999999999999
asg32
g33
sg34
I00
sa(dp235
g8
(lp236
I0
aI1
asg10
(lp237
sg12
I30
sg13
g14
sg15
I2
sg16
I0
sg17
(lp238
sg19
(lp239
I12
aI1
asg21
F0.74001789093017578
sg22
(lp240
g79
ag64
asg26
I1
sg27
I1
sg28
I0
sg29
F91.131009101867676
sg30
(lp241
F0.48099999999999998
aF0.90000000000000002
asg32
g33
sg34
I00
sa(dp242
g8
(lp243
I1
aI1
asg10
(lp244
sg12
I31
sg13
g14
sg15
I2
sg16
I1
sg17
(lp245
sg19
(lp246
I11
aI1
asg21
F0.49351596832275391
sg22
(lp247
g25
ag64
asg26
I1
sg27
I1
sg28
I1
sg29
F94.200824975967407
sg30
(lp248
F0.48099999999999998
aF0.90000000000000002
asg32
g33
sg34
I01
sa(dp249
g8
(lp250
I1
aI1
asg10
(lp251
sg12
I32
sg13
g14
sg15
I2
sg16
I1
sg17
(lp252
sg19
(lp253
I1
aI12
asg21
F0.70874309539794922
sg22
(lp254
g64
ag79
asg26
I1
sg27
I0
sg28
I0
sg29
F97.270735025405884
sg30
(lp255
F0.90000000000000002
aF0.48099999999999998
asg32
g33
sg34
I01
sa(dp256
g8
(lp257
I1
aI1
asg10
(lp258
sg12
I33
sg13
g14
sg15
I2
sg16
I1
sg17
(lp259
sg19
(lp260
I11
aI1
asg21
F0.52960896492004395
sg22
(lp261
g25
ag64
asg26
I1
sg27
I1
sg28
I1
sg29
F100.34135603904724
sg30
(lp262
F0.48099999999999998
aF0.90000000000000002
asg32
g33
sg34
I01
sa(dp263
g8
(lp264
I0
aI0
asg10
(lp265
sg12
I34
sg13
g14
sg15
I2
sg16
I0
sg17
(lp266
sg19
(lp267
I6
aI12
asg21
F1.0603270530700684
sg22
(lp268
g41
ag79
asg26
I1
sg27
I1
sg28
I0
sg29
F103.41068291664124
sg30
(lp269
F0.060999999999999999
aF0.48099999999999998
asg32
g33
sg34
I00
sa(dp270
g8
(lp271
I1
aI1
asg10
(lp272
sg12
I35
sg13
g14
sg15
I2
sg16
I1
sg17
(lp273
sg19
(lp274
I12
aI11
asg21
F0.72408103942871094
sg22
(lp275
g79
ag25
asg26
I1
sg27
I0
sg28
I0
sg29
F106.48058104515076
sg30
(lp276
F0.48099999999999998
aF0.48099999999999998
asg32
g33
sg34
I01
sa(dp277
g8
(lp278
I0
aI0
asg10
(lp279
sg12
I36
sg13
g14
sg15
I2
sg16
I0
sg17
(lp280
sg19
(lp281
I12
aI11
asg21
F0.63534808158874512
sg22
(lp282
g79
ag25
asg26
I1
sg27
I0
sg28
I0
sg29
F109.55108189582825
sg30
(lp283
F0.48099999999999998
aF0.48099999999999998
asg32
g33
sg34
I01
sa(dp284
g8
(lp285
I0
aI0
asg10
(lp286
sg12
I37
sg13
g14
sg15
I2
sg16
I0
sg17
(lp287
sg19
(lp288
I12
aI7
asg21
F1.2100629806518555
sg22
(lp289
g79
ag56
asg26
I1
sg27
I0
sg28
I0
sg29
F112.62074899673462
sg30
(lp290
F0.48099999999999998
aF0.050000000000000003
asg32
g33
sg34
I01
sa(dp291
g8
(lp292
I0
aI0
asg10
(lp293
sg12
I38
sg13
g14
sg15
I2
sg16
I0
sg17
(lp294
sg19
(lp295
I11
aI1
asg21
F0.8291010856628418
sg22
(lp296
g25
ag64
asg26
I1
sg27
I1
sg28
I1
sg29
F115.69049906730652
sg30
(lp297
F0.48099999999999998
aF0.90000000000000002
asg32
g33
sg34
I01
sa(dp298
g8
(lp299
I0
aI1
asg10
(lp300
sg12
I39
sg13
g14
sg15
I2
sg16
I1
sg17
(lp301
sg19
(lp302
I7
aI1
asg21
F0.89816594123840332
sg22
(lp303
g56
ag64
asg26
I1
sg27
I1
sg28
I1
sg29
F118.76097393035889
sg30
(lp304
F0.050000000000000003
aF0.90000000000000002
asg32
g33
sg34
I01
sa(dp305
g8
(lp306
I1
aI1
asg10
(lp307
sg12
I40
sg13
g14
sg15
I2
sg16
I1
sg17
(lp308
sg19
(lp309
I2
aI11
asg21
F0.91025996208190918
sg22
(lp310
g24
ag25
asg26
I1
sg27
I0
sg28
I0
sg29
F121.83084607124329
sg30
(lp311
F0.88900000000000001
aF0.48099999999999998
asg32
g33
sg34
I01
sa(dp312
g8
(lp313
I0
aI1
asg10
(lp314
sg12
I41
sg13
g14
sg15
I2
sg16
I1
sg17
(lp315
sg19
(lp316
I1
aI2
asg21
F0.78820300102233887
sg22
(lp317
g64
ag24
asg26
I1
sg27
I0
sg28
I1
sg29
F124.90071511268616
sg30
(lp318
F0.90000000000000002
aF0.88900000000000001
asg32
g33
sg34
I00
sa(dp319
g8
(lp320
I0
aI0
asg10
(lp321
sg12
I42
sg13
g14
sg15
I2
sg16
I0
sg17
(lp322
sg19
(lp323
I11
aI7
asg21
F1.2732031345367432
sg22
(lp324
g25
ag56
asg26
I1
sg27
I0
sg28
I1
sg29
F127.97082209587097
sg30
(lp325
F0.48099999999999998
aF0.050000000000000003
asg32
g33
sg34
I00
sa(dp326
g8
(lp327
I0
aI1
asg10
(lp328
sg12
I43
sg13
g14
sg15
I2
sg16
I1
sg17
(lp329
sg19
(lp330
I6
aI1
asg21
F0.86910700798034668
sg22
(lp331
g41
ag64
asg26
I1
sg27
I1
sg28
I1
sg29
F131.04045605659485
sg30
(lp332
F0.060999999999999999
aF0.90000000000000002
asg32
g33
sg34
I01
sa(dp333
g8
(lp334
I1
aI1
asg10
(lp335
sg12
I44
sg13
g14
sg15
I2
sg16
I1
sg17
(lp336
sg19
(lp337
I6
aI12
asg21
F1.2303087711334229
sg22
(lp338
g41
ag79
asg26
I1
sg27
I1
sg28
I1
sg29
F134.11066198348999
sg30
(lp339
F0.060999999999999999
aF0.48099999999999998
asg32
g33
sg34
I01
sa(dp340
g8
(lp341
I1
aI0
asg10
(lp342
sg12
I45
sg13
g14
sg15
I2
sg16
I1
sg17
(lp343
sg19
(lp344
I2
aI7
asg21
F0.90573000907897949
sg22
(lp345
g24
ag56
asg26
I1
sg27
I0
sg28
I0
sg29
F137.18072700500488
sg30
(lp346
F0.88900000000000001
aF0.050000000000000003
asg32
g33
sg34
I01
sa(dp347
g8
(lp348
I1
aI0
asg10
(lp349
sg12
I46
sg13
g14
sg15
I2
sg16
I1
sg17
(lp350
sg19
(lp351
I1
aI11
asg21
F0.94033217430114746
sg22
(lp352
g64
ag25
asg26
I1
sg27
I0
sg28
I0
sg29
F140.25169897079468
sg30
(lp353
F0.90000000000000002
aF0.48099999999999998
asg32
g33
sg34
I01
sa(dp354
g8
(lp355
I0
aI0
asg10
(lp356
sg12
I47
sg13
g14
sg15
I2
sg16
I0
sg17
(lp357
sg19
(lp358
I11
aI6
asg21
F1.4145519733428955
sg22
(lp359
g25
ag41
asg26
I1
sg27
I0
sg28
I0
sg29
F143.32040095329285
sg30
(lp360
F0.48099999999999998
aF0.060999999999999999
asg32
g33
sg34
I01
sa(dp361
g8
(lp362
I1
aI1
asg10
(lp363
sg12
I48
sg13
g14
sg15
I2
sg16
I1
sg17
(lp364
sg19
(lp365
I2
aI1
asg21
F1.0220417976379395
sg22
(lp366
g24
ag64
asg26
I1
sg27
I1
sg28
I0
sg29
F146.39041900634766
sg30
(lp367
F0.88900000000000001
aF0.90000000000000002
asg32
g33
sg34
I00
sa(dp368
g8
(lp369
I0
aI0
asg10
(lp370
sg12
I49
sg13
g14
sg15
I2
sg16
I0
sg17
(lp371
sg19
(lp372
I6
aI1
asg21
F0.66316413879394531
sg22
(lp373
g41
ag64
asg26
I1
sg27
I1
sg28
I1
sg29
F149.46052408218384
sg30
(lp374
F0.060999999999999999
aF0.90000000000000002
asg32
g33
sg34
I01
sa(dp375
g8
(lp376
I0
aI0
asg10
(lp377
sg12
I50
sg13
g14
sg15
I2
sg16
I0
sg17
(lp378
sg19
(lp379
I7
aI2
asg21
F0.72098302841186523
sg22
(lp380
g56
ag24
asg26
I1
sg27
I1
sg28
I1
sg29
F152.53041291236877
sg30
(lp381
F0.050000000000000003
aF0.88900000000000001
asg32
g33
sg34
I01
sa(dp382
g8
(lp383
I1
aI0
asg10
(lp384
sg12
I51
sg13
g14
sg15
I2
sg16
I0
sg17
(lp385
sg19
(lp386
I1
aI7
asg21
F1.2283749580383301
sg22
(lp387
g64
ag56
asg26
I1
sg27
I0
sg28
I1
sg29
F155.60025405883789
sg30
(lp388
F0.90000000000000002
aF0.050000000000000003
asg32
g33
sg34
I00
sa(dp389
g8
(lp390
I1
aI0
asg10
(lp391
sg12
I52
sg13
g14
sg15
I2
sg16
I0
sg17
(lp392
sg19
(lp393
I11
aI2
asg21
F0.63406801223754883
sg22
(lp394
g25
ag24
asg26
I1
sg27
I1
sg28
I1
sg29
F158.67056798934937
sg30
(lp395
F0.48099999999999998
aF0.88900000000000001
asg32
g33
sg34
I01
sa(dp396
g8
(lp397
I1
aI0
asg10
(lp398
sg12
I53
sg13
g14
sg15
I2
sg16
I0
sg17
(lp399
sg19
(lp400
I12
aI11
asg21
F1.7710399627685547
sg22
(lp401
g79
ag25
asg26
I1
sg27
I0
sg28
I1
sg29
F161.74017310142517
sg30
(lp402
F0.48099999999999998
aF0.48099999999999998
asg32
g33
sg34
I00
sa(dp403
g8
(lp404
I0
aI1
asg10
(lp405
sg12
I54
sg13
g14
sg15
I2
sg16
I1
sg17
(lp406
sg19
(lp407
I7
aI2
asg21
F0.85043692588806152
sg22
(lp408
g56
ag24
asg26
I1
sg27
I1
sg28
I1
sg29
F164.81033897399902
sg30
(lp409
F0.050000000000000003
aF0.88900000000000001
asg32
g33
sg34
I01
sa(dp410
g8
(lp411
I1
aI0
asg10
(lp412
sg12
I55
sg13
g14
sg15
I2
sg16
I1
sg17
(lp413
sg19
(lp414
I1
aI6
asg21
F0.95216798782348633
sg22
(lp415
g64
ag41
asg26
I1
sg27
I0
sg28
I0
sg29
F167.88025593757629
sg30
(lp416
F0.90000000000000002
aF0.060999999999999999
asg32
g33
sg34
I01
sa(dp417
g8
(lp418
I1
aI1
asg10
(lp419
sg12
I56
sg13
g14
sg15
I2
sg16
I1
sg17
(lp420
sg19
(lp421
I11
aI2
asg21
F1.426476001739502
sg22
(lp422
g25
ag24
asg26
I1
sg27
I1
sg28
I1
sg29
F170.95137095451355
sg30
(lp423
F0.48099999999999998
aF0.88900000000000001
asg32
g33
sg34
I01
sa(dp424
g8
(lp425
I0
aI1
asg10
(lp426
sg12
I57
sg13
g14
sg15
I2
sg16
I1
sg17
(lp427
sg19
(lp428
I11
aI2
asg21
F0.70794987678527832
sg22
(lp429
g25
ag24
asg26
I1
sg27
I1
sg28
I1
sg29
F174.02010297775269
sg30
(lp430
F0.48099999999999998
aF0.88900000000000001
asg32
g33
sg34
I01
sa(dp431
g8
(lp432
I1
aI0
asg10
(lp433
sg12
I58
sg13
g14
sg15
I2
sg16
I1
sg17
(lp434
sg19
(lp435
I1
aI11
asg21
F0.78756999969482422
sg22
(lp436
g64
ag25
asg26
I1
sg27
I0
sg28
I0
sg29
F177.09014105796814
sg30
(lp437
F0.90000000000000002
aF0.48099999999999998
asg32
g33
sg34
I01
sa(dp438
g8
(lp439
I1
aI1
asg10
(lp440
sg12
I59
sg13
g14
sg15
I2
sg16
I1
sg17
(lp441
sg19
(lp442
I12
aI2
asg21
F0.75519585609436035
sg22
(lp443
g79
ag24
asg26
I1
sg27
I1
sg28
I1
sg29
F180.16042304039001
sg30
(lp444
F0.48099999999999998
aF0.88900000000000001
asg32
g33
sg34
I01
sa(dp445
g8
(lp446
I0
aI1
asg10
(lp447
sg12
I60
sg13
g14
sg15
I2
sg16
I0
sg17
(lp448
sg19
(lp449
I6
aI11
asg21
F1.1281609535217285
sg22
(lp450
g41
ag25
asg26
I1
sg27
I1
sg28
I0
sg29
F183.22999596595764
sg30
(lp451
F0.060999999999999999
aF0.48099999999999998
asg32
g33
sg34
I00
sa(dp452
g8
(lp453
I0
aI0
asg10
(lp454
sg12
I61
sg13
g14
sg15
I2
sg16
I0
sg17
(lp455
sg19
(lp456
I7
aI6
asg21
F0.99431896209716797
sg22
(lp457
g56
ag41
asg26
I1
sg27
I1
sg28
I1
sg29
F186.29984211921692
sg30
(lp458
F0.050000000000000003
aF0.060999999999999999
asg32
g33
sg34
I01
sa(dp459
g8
(lp460
I0
aI1
asg10
(lp461
sg12
I62
sg13
g14
sg15
I2
sg16
I0
sg17
(lp462
sg19
(lp463
I7
aI12
asg21
F1.6820290088653564
sg22
(lp464
g56
ag79
asg26
I1
sg27
I1
sg28
I0
sg29
F189.36996507644653
sg30
(lp465
F0.050000000000000003
aF0.48099999999999998
asg32
g33
sg34
I00
sa(dp466
g8
(lp467
I0
aI1
asg10
(lp468
sg12
I63
sg13
g14
sg15
I2
sg16
I0
sg17
(lp469
sg19
(lp470
I7
aI11
asg21
F1.3116412162780762
sg22
(lp471
g56
ag25
asg26
I1
sg27
I1
sg28
I0
sg29
F192.4401581287384
sg30
(lp472
F0.050000000000000003
aF0.48099999999999998
asg32
g33
sg34
I00
sa(dp473
g8
(lp474
I1
aI0
asg10
(lp475
sg12
I64
sg13
g14
sg15
I2
sg16
I1
sg17
(lp476
sg19
(lp477
I12
aI6
asg21
F1.3467068672180176
sg22
(lp478
g79
ag41
asg26
I1
sg27
I0
sg28
I0
sg29
F195.50978803634644
sg30
(lp479
F0.48099999999999998
aF0.060999999999999999
asg32
g33
sg34
I01
sa(dp480
g8
(lp481
I1
aI1
asg10
(lp482
sg12
I65
sg13
g14
sg15
I2
sg16
I1
sg17
(lp483
sg19
(lp484
I1
aI11
asg21
F0.78587603569030762
sg22
(lp485
g64
ag25
asg26
I1
sg27
I0
sg28
I0
sg29
F198.58065795898438
sg30
(lp486
F0.90000000000000002
aF0.48099999999999998
asg32
g33
sg34
I01
sa(dp487
g8
(lp488
I1
aI0
asg10
(lp489
sg12
I66
sg13
g14
sg15
I2
sg16
I1
sg17
(lp490
sg19
(lp491
I2
aI7
asg21
F0.91057205200195312
sg22
(lp492
g24
ag56
asg26
I1
sg27
I0
sg28
I0
sg29
F201.65004205703735
sg30
(lp493
F0.88900000000000001
aF0.050000000000000003
asg32
g33
sg34
I01
sa(dp494
g8
(lp495
I0
aI1
asg10
(lp496
sg12
I67
sg13
g14
sg15
I2
sg16
I1
sg17
(lp497
sg19
(lp498
I7
aI1
asg21
F0.85579895973205566
sg22
(lp499
g56
ag64
asg26
I1
sg27
I1
sg28
I1
sg29
F204.71980404853821
sg30
(lp500
F0.050000000000000003
aF0.90000000000000002
asg32
g33
sg34
I01
sa(dp501
g8
(lp502
I1
aI1
asg10
(lp503
sg12
I68
sg13
g14
sg15
I2
sg16
I1
sg17
(lp504
sg19
(lp505
I2
aI1
asg21
F1.0034751892089844
sg22
(lp506
g24
ag64
asg26
I1
sg27
I1
sg28
I1
sg29
F207.7899329662323
sg30
(lp507
F0.88900000000000001
aF0.90000000000000002
asg32
g33
sg34
I01
sa(dp508
g8
(lp509
I1
aI1
asg10
(lp510
sg12
I69
sg13
g14
sg15
I2
sg16
I1
sg17
(lp511
sg19
(lp512
I1
aI12
asg21
F0.77928018569946289
sg22
(lp513
g64
ag79
asg26
I1
sg27
I0
sg28
I0
sg29
F210.86006808280945
sg30
(lp514
F0.90000000000000002
aF0.48099999999999998
asg32
g33
sg34
I01
sa(dp515
g8
(lp516
I0
aI1
asg10
(lp517
sg12
I70
sg13
g14
sg15
I2
sg16
I1
sg17
(lp518
sg19
(lp519
I11
aI1
asg21
F0.71349811553955078
sg22
(lp520
g25
ag64
asg26
I1
sg27
I1
sg28
I1
sg29
F213.92970895767212
sg30
(lp521
F0.48099999999999998
aF0.90000000000000002
asg32
g33
sg34
I01
sa(dp522
g8
(lp523
I1
aI0
asg10
(lp524
sg12
I71
sg13
g14
sg15
I2
sg16
I0
sg17
(lp525
sg19
(lp526
I11
aI6
asg21
F1.3675479888916016
sg22
(lp527
g25
ag41
asg26
I1
sg27
I0
sg28
I1
sg29
F216.99974203109741
sg30
(lp528
F0.48099999999999998
aF0.060999999999999999
asg32
g33
sg34
I00
sa(dp529
g8
(lp530
I1
aI0
asg10
(lp531
sg12
I72
sg13
g14
sg15
I2
sg16
I1
sg17
(lp532
sg19
(lp533
I12
aI11
asg21
F1.0423111915588379
sg22
(lp534
g79
ag25
asg26
I1
sg27
I0
sg28
I0
sg29
F220.06977510452271
sg30
(lp535
F0.48099999999999998
aF0.48099999999999998
asg32
g33
sg34
I01
sa(dp536
g8
(lp537
I0
aI1
asg10
(lp538
sg12
I73
sg13
g14
sg15
I2
sg16
I1
sg17
(lp539
sg19
(lp540
I6
aI1
asg21
F0.76233196258544922
sg22
(lp541
g41
ag64
asg26
I1
sg27
I1
sg28
I1
sg29
F223.14003300666809
sg30
(lp542
F0.060999999999999999
aF0.90000000000000002
asg32
g33
sg34
I01
sa(dp543
g8
(lp544
I1
aI1
asg10
(lp545
sg12
I74
sg13
g14
sg15
I2
sg16
I1
sg17
(lp546
sg19
(lp547
I12
aI1
asg21
F0.76364707946777344
sg22
(lp548
g79
ag64
asg26
I1
sg27
I1
sg28
I1
sg29
F226.2098240852356
sg30
(lp549
F0.48099999999999998
aF0.90000000000000002
asg32
g33
sg34
I01
sa(dp550
g8
(lp551
I1
aI0
asg10
(lp552
sg12
I75
sg13
g14
sg15
I2
sg16
I1
sg17
(lp553
sg19
(lp554
I6
aI7
asg21
F1.2488269805908203
sg22
(lp555
g41
ag56
asg26
I1
sg27
I0
sg28
I0
sg29
F229.28020310401917
sg30
(lp556
F0.060999999999999999
aF0.050000000000000003
asg32
g33
sg34
I01
sa(dp557
g8
(lp558
I0
aI0
asg10
(lp559
sg12
I76
sg13
g14
sg15
I2
sg16
I0
sg17
(lp560
sg19
(lp561
I12
aI7
asg21
F1.4640491008758545
sg22
(lp562
g79
ag56
asg26
I1
sg27
I0
sg28
I0
sg29
F232.34964990615845
sg30
(lp563
F0.48099999999999998
aF0.050000000000000003
asg32
g33
sg34
I01
sa(dp564
g8
(lp565
I0
aI1
asg10
(lp566
sg12
I77
sg13
g14
sg15
I2
sg16
I1
sg17
(lp567
sg19
(lp568
I12
aI2
asg21
F0.84641504287719727
sg22
(lp569
g79
ag24
asg26
I1
sg27
I1
sg28
I1
sg29
F235.41958689689636
sg30
(lp570
F0.48099999999999998
aF0.88900000000000001
asg32
g33
sg34
I01
sa(dp571
g8
(lp572
I0
aI0
asg10
(lp573
sg12
I78
sg13
g14
sg15
I2
sg16
I0
sg17
(lp574
sg19
(lp575
I12
aI6
asg21
F1.0388829708099365
sg22
(lp576
g79
ag41
asg26
I1
sg27
I0
sg28
I1
sg29
F238.48940205574036
sg30
(lp577
F0.48099999999999998
aF0.060999999999999999
asg32
g33
sg34
I00
sa(dp578
g8
(lp579
I1
aI0
asg10
(lp580
sg12
I79
sg13
g14
sg15
I2
sg16
I0
sg17
(lp581
sg19
(lp582
I11
aI12
asg21
F1.2311549186706543
sg22
(lp583
g25
ag79
asg26
I1
sg27
I0
sg28
I1
sg29
F241.56001091003418
sg30
(lp584
F0.48099999999999998
aF0.48099999999999998
asg32
g33
sg34
I00
sa(dp585
g8
(lp586
I0
aI0
asg10
(lp587
sg12
I80
sg13
g14
sg15
I2
sg16
I0
sg17
(lp588
sg19
(lp589
I6
aI7
asg21
F0.99689793586730957
sg22
(lp590
g41
ag56
asg26
I1
sg27
I0
sg28
I1
sg29
F244.62960910797119
sg30
(lp591
F0.060999999999999999
aF0.050000000000000003
asg32
g33
sg34
I00
sa(dp592
g8
(lp593
I0
aI1
asg10
(lp594
sg12
I81
sg13
g14
sg15
I2
sg16
I1
sg17
(lp595
sg19
(lp596
I6
aI12
asg21
F1.3912420272827148
sg22
(lp597
g41
ag79
asg26
I1
sg27
I1
sg28
I1
sg29
F247.6998450756073
sg30
(lp598
F0.060999999999999999
aF0.48099999999999998
asg32
g33
sg34
I01
sa(dp599
g8
(lp600
I0
aI0
asg10
(lp601
sg12
I82
sg13
g14
sg15
I2
sg16
I0
sg17
(lp602
sg19
(lp603
I7
aI6
asg21
F0.97645998001098633
sg22
(lp604
g56
ag41
asg26
I1
sg27
I1
sg28
I1
sg29
F250.76990795135498
sg30
(lp605
F0.050000000000000003
aF0.060999999999999999
asg32
g33
sg34
I01
sa(dp606
g8
(lp607
I0
aI0
asg10
(lp608
sg12
I83
sg13
g14
sg15
I2
sg16
I0
sg17
(lp609
sg19
(lp610
I11
aI6
asg21
F1.4730100631713867
sg22
(lp611
g25
ag41
asg26
I1
sg27
I0
sg28
I0
sg29
F253.83959698677063
sg30
(lp612
F0.48099999999999998
aF0.060999999999999999
asg32
g33
sg34
I01
sa(dp613
g8
(lp614
I0
aI0
asg10
(lp615
sg12
I84
sg13
g14
sg15
I2
sg16
I0
sg17
(lp616
sg19
(lp617
I7
aI2
asg21
F1.4742441177368164
sg22
(lp618
g56
ag24
asg26
I1
sg27
I1
sg28
I1
sg29
F256.90957403182983
sg30
(lp619
F0.050000000000000003
aF0.88900000000000001
asg32
g33
sg34
I01
sa(dp620
g8
(lp621
I1
aI0
asg10
(lp622
sg12
I85
sg13
g14
sg15
I2
sg16
I1
sg17
(lp623
sg19
(lp624
I2
aI11
asg21
F0.87930989265441895
sg22
(lp625
g24
ag25
asg26
I1
sg27
I0
sg28
I0
sg29
F259.98017811775208
sg30
(lp626
F0.88900000000000001
aF0.48099999999999998
asg32
g33
sg34
I01
sa(dp627
g8
(lp628
I0
aI0
asg10
(lp629
sg12
I86
sg13
g14
sg15
I2
sg16
I0
sg17
(lp630
sg19
(lp631
I1
aI12
asg21
F0.95973992347717285
sg22
(lp632
g64
ag79
asg26
I1
sg27
I0
sg28
I0
sg29
F263.04963302612305
sg30
(lp633
F0.90000000000000002
aF0.48099999999999998
asg32
g33
sg34
I01
sa(dp634
g8
(lp635
I0
aI0
asg10
(lp636
sg12
I87
sg13
g14
sg15
I2
sg16
I0
sg17
(lp637
sg19
(lp638
I7
aI2
asg21
F1.3883378505706787
sg22
(lp639
g56
ag24
asg26
I1
sg27
I1
sg28
I1
sg29
F266.11918902397156
sg30
(lp640
F0.050000000000000003
aF0.88900000000000001
asg32
g33
sg34
I01
sa(dp641
g8
(lp642
I0
aI0
asg10
(lp643
sg12
I88
sg13
g14
sg15
I2
sg16
I0
sg17
(lp644
sg19
(lp645
I11
aI12
asg21
F1.4797449111938477
sg22
(lp646
g25
ag79
asg26
I1
sg27
I0
sg28
I1
sg29
F269.18918204307556
sg30
(lp647
F0.48099999999999998
aF0.48099999999999998
asg32
g33
sg34
I00
sa(dp648
g8
(lp649
I1
aI0
asg10
(lp650
sg12
I89
sg13
g14
sg15
I2
sg16
I1
sg17
(lp651
sg19
(lp652
I2
aI6
asg21
F1.0420010089874268
sg22
(lp653
g24
ag41
asg26
I1
sg27
I0
sg28
I0
sg29
F272.25955390930176
sg30
(lp654
F0.88900000000000001
aF0.060999999999999999
asg32
g33
sg34
I01
sa(dp655
g8
(lp656
I0
aI1
asg10
(lp657
sg12
I90
sg13
g14
sg15
I2
sg16
I0
sg17
(lp658
sg19
(lp659
I6
aI2
asg21
F0.72809100151062012
sg22
(lp660
g41
ag24
asg26
I1
sg27
I1
sg28
I0
sg29
F275.32917189598083
sg30
(lp661
F0.060999999999999999
aF0.88900000000000001
asg32
g33
sg34
I00
sa(dp662
g8
(lp663
I1
aI0
asg10
(lp664
sg12
I91
sg13
g14
sg15
I2
sg16
I0
sg17
(lp665
sg19
(lp666
I11
aI7
asg21
F1.2582859992980957
sg22
(lp667
g25
ag56
asg26
I1
sg27
I0
sg28
I1
sg29
F278.39914703369141
sg30
(lp668
F0.48099999999999998
aF0.050000000000000003
asg32
g33
sg34
I00
sa(dp669
g8
(lp670
I0
aI0
asg10
(lp671
sg12
I92
sg13
g14
sg15
I2
sg16
I0
sg17
(lp672
sg19
(lp673
I1
aI11
asg21
F0.55113792419433594
sg22
(lp674
g64
ag25
asg26
I1
sg27
I0
sg28
I0
sg29
F281.46981501579285
sg30
(lp675
F0.90000000000000002
aF0.48099999999999998
asg32
g33
sg34
I01
sa(dp676
g8
(lp677
I1
aI0
asg10
(lp678
sg12
I93
sg13
g14
sg15
I2
sg16
I1
sg17
(lp679
sg19
(lp680
I1
aI12
asg21
F0.71015810966491699
sg22
(lp681
g64
ag79
asg26
I1
sg27
I0
sg28
I0
sg29
F284.53935408592224
sg30
(lp682
F0.90000000000000002
aF0.48099999999999998
asg32
g33
sg34
I01
sa(dp683
g8
(lp684
I1
aI1
asg10
(lp685
sg12
I94
sg13
g14
sg15
I2
sg16
I1
sg17
(lp686
sg19
(lp687
I2
aI12
asg21
F1.6786279678344727
sg22
(lp688
g24
ag79
asg26
I1
sg27
I0
sg28
I0
sg29
F287.60887694358826
sg30
(lp689
F0.88900000000000001
aF0.48099999999999998
asg32
g33
sg34
I01
sa(dp690
g8
(lp691
I0
aI1
asg10
(lp692
sg12
I95
sg13
g14
sg15
I2
sg16
I1
sg17
(lp693
sg19
(lp694
I2
aI1
asg21
F0.83559799194335938
sg22
(lp695
g24
ag64
asg26
I1
sg27
I1
sg28
I1
sg29
F290.68021893501282
sg30
(lp696
F0.88900000000000001
aF0.90000000000000002
asg32
g33
sg34
I01
sa(dp697
g8
(lp698
I1
aI0
asg10
(lp699
sg12
I96
sg13
g14
sg15
I2
sg16
I1
sg17
(lp700
sg19
(lp701
I1
aI7
asg21
F0.70236110687255859
sg22
(lp702
g64
ag56
asg26
I1
sg27
I0
sg28
I0
sg29
F293.74921703338623
sg30
(lp703
F0.90000000000000002
aF0.050000000000000003
asg32
g33
sg34
I01
sa(dp704
g8
(lp705
I0
aI0
asg10
(lp706
sg12
I97
sg13
g14
sg15
I2
sg16
I0
sg17
(lp707
sg19
(lp708
I7
aI6
asg21
F1.401080846786499
sg22
(lp709
g56
ag41
asg26
I1
sg27
I1
sg28
I0
sg29
F296.8193359375
sg30
(lp710
F0.050000000000000003
aF0.060999999999999999
asg32
g33
sg34
I00
sa(dp711
g8
(lp712
I0
aI1
asg10
(lp713
sg12
I98
sg13
g14
sg15
I2
sg16
I1
sg17
(lp714
sg19
(lp715
I11
aI12
asg21
F1.3348150253295898
sg22
(lp716
g25
ag79
asg26
I1
sg27
I0
sg28
I1
sg29
F299.88910698890686
sg30
(lp717
F0.48099999999999998
aF0.48099999999999998
asg32
g33
sg34
I00
sa(dp718
g8
(lp719
I0
aI1
asg10
(lp720
sg12
I99
sg13
g14
sg15
I2
sg16
I0
sg17
(lp721
sg19
(lp722
I6
aI11
asg21
F1.4037680625915527
sg22
(lp723
g41
ag25
asg26
I1
sg27
I1
sg28
I0
sg29
F302.95900797843933
sg30
(lp724
F0.060999999999999999
aF0.48099999999999998
asg32
g33
sg34
I00
sa(dp725
g8
(lp726
I0
aI1
asg10
(lp727
sg12
I100
sg13
g14
sg15
I2
sg16
I1
sg17
(lp728
sg19
(lp729
I7
aI11
asg21
F1.5852510929107666
sg22
(lp730
g56
ag25
asg26
I1
sg27
I1
sg28
I1
sg29
F306.02940392494202
sg30
(lp731
F0.050000000000000003
aF0.48099999999999998
asg32
g33
sg34
I01
sa(dp732
g8
(lp733
I0
aI1
asg10
(lp734
sg12
I101
sg13
g14
sg15
I2
sg16
I1
sg17
(lp735
sg19
(lp736
I11
aI1
asg21
F1.0014269351959229
sg22
(lp737
g25
ag64
asg26
I1
sg27
I1
sg28
I1
sg29
F309.09901595115662
sg30
(lp738
F0.48099999999999998
aF0.90000000000000002
asg32
g33
sg34
I01
sa(dp739
g8
(lp740
I1
aI0
asg10
(lp741
sg12
I102
sg13
g14
sg15
I2
sg16
I1
sg17
(lp742
sg19
(lp743
I11
aI12
asg21
F1.5764548778533936
sg22
(lp744
g25
ag79
asg26
I1
sg27
I0
sg28
I0
sg29
F312.16889691352844
sg30
(lp745
F0.48099999999999998
aF0.48099999999999998
asg32
g33
sg34
I01
sa(dp746
g8
(lp747
I1
aI0
asg10
(lp748
sg12
I103
sg13
g14
sg15
I2
sg16
I1
sg17
(lp749
sg19
(lp750
I1
aI6
asg21
F0.79018998146057129
sg22
(lp751
g64
ag41
asg26
I1
sg27
I0
sg28
I0
sg29
F315.23890900611877
sg30
(lp752
F0.90000000000000002
aF0.060999999999999999
asg32
g33
sg34
I01
sa(dp753
g8
(lp754
I1
aI0
asg10
(lp755
sg12
I104
sg13
g14
sg15
I2
sg16
I0
sg17
(lp756
sg19
(lp757
I12
aI2
asg21
F0.65687203407287598
sg22
(lp758
g79
ag24
asg26
I1
sg27
I1
sg28
I1
sg29
F318.30939292907715
sg30
(lp759
F0.48099999999999998
aF0.88900000000000001
asg32
g33
sg34
I01
sa(dp760
g8
(lp761
I1
aI1
asg10
(lp762
sg12
I105
sg13
g14
sg15
I2
sg16
I1
sg17
(lp763
sg19
(lp764
I2
aI12
asg21
F0.52276301383972168
sg22
(lp765
g24
ag79
asg26
I1
sg27
I0
sg28
I0
sg29
F321.37903594970703
sg30
(lp766
F0.88900000000000001
aF0.48099999999999998
asg32
g33
sg34
I01
sa(dp767
g8
(lp768
I0
aI1
asg10
(lp769
sg12
I106
sg13
g14
sg15
I2
sg16
I1
sg17
(lp770
sg19
(lp771
I6
aI2
asg21
F0.7943878173828125
sg22
(lp772
g41
ag24
asg26
I1
sg27
I1
sg28
I1
sg29
F324.44867300987244
sg30
(lp773
F0.060999999999999999
aF0.88900000000000001
asg32
g33
sg34
I01
sa(dp774
g8
(lp775
I1
aI0
asg10
(lp776
sg12
I107
sg13
g14
sg15
I2
sg16
I0
sg17
(lp777
sg19
(lp778
I11
aI7
asg21
F0.6944420337677002
sg22
(lp779
g25
ag56
asg26
I1
sg27
I0
sg28
I1
sg29
F327.51877903938293
sg30
(lp780
F0.48099999999999998
aF0.050000000000000003
asg32
g33
sg34
I00
sa(dp781
g8
(lp782
I1
aI1
asg10
(lp783
sg12
I108
sg13
g14
sg15
I2
sg16
I1
sg17
(lp784
sg19
(lp785
I2
aI1
asg21
F0.86478400230407715
sg22
(lp786
g24
ag64
asg26
I1
sg27
I1
sg28
I0
sg29
F330.58909893035889
sg30
(lp787
F0.88900000000000001
aF0.90000000000000002
asg32
g33
sg34
I00
sa(dp788
g8
(lp789
I0
aI0
asg10
(lp790
sg12
I109
sg13
g14
sg15
I2
sg16
I0
sg17
(lp791
sg19
(lp792
I11
aI7
asg21
F1.2820818424224854
sg22
(lp793
g25
ag56
asg26
I1
sg27
I0
sg28
I0
sg29
F333.65904712677002
sg30
(lp794
F0.48099999999999998
aF0.050000000000000003
asg32
g33
sg34
I01
sa(dp795
g8
(lp796
I1
aI0
asg10
(lp797
sg12
I110
sg13
g14
sg15
I2
sg16
I1
sg17
(lp798
sg19
(lp799
I2
aI7
asg21
F1.3731350898742676
sg22
(lp800
g24
ag56
asg26
I1
sg27
I0
sg28
I0
sg29
F336.72901010513306
sg30
(lp801
F0.88900000000000001
aF0.050000000000000003
asg32
g33
sg34
I01
sa(dp802
g8
(lp803
I1
aI1
asg10
(lp804
sg12
I111
sg13
g14
sg15
I2
sg16
I1
sg17
(lp805
sg19
(lp806
I2
aI1
asg21
F1.1044671535491943
sg22
(lp807
g24
ag64
asg26
I1
sg27
I1
sg28
I1
sg29
F339.79883503913879
sg30
(lp808
F0.88900000000000001
aF0.90000000000000002
asg32
g33
sg34
I01
sa(dp809
g8
(lp810
I0
aI0
asg10
(lp811
sg12
I112
sg13
g14
sg15
I2
sg16
I0
sg17
(lp812
sg19
(lp813
I11
aI7
asg21
F1.6685371398925781
sg22
(lp814
g25
ag56
asg26
I1
sg27
I0
sg28
I1
sg29
F342.86870193481445
sg30
(lp815
F0.48099999999999998
aF0.050000000000000003
asg32
g33
sg34
I00
sa(dp816
g8
(lp817
I0
aI0
asg10
(lp818
sg12
I113
sg13
g14
sg15
I2
sg16
I0
sg17
(lp819
sg19
(lp820
I11
aI6
asg21
F1.5685458183288574
sg22
(lp821
g25
ag41
asg26
I1
sg27
I0
sg28
I1
sg29
F345.93855690956116
sg30
(lp822
F0.48099999999999998
aF0.060999999999999999
asg32
g33
sg34
I00
sa(dp823
g8
(lp824
I1
aI0
asg10
(lp825
sg12
I114
sg13
g14
sg15
I2
sg16
I1
sg17
(lp826
sg19
(lp827
I6
aI7
asg21
F1.6592350006103516
sg22
(lp828
g41
ag56
asg26
I1
sg27
I0
sg28
I0
sg29
F349.00894403457642
sg30
(lp829
F0.060999999999999999
aF0.050000000000000003
asg32
g33
sg34
I01
sa(dp830
g8
(lp831
I0
aI1
asg10
(lp832
sg12
I115
sg13
g14
sg15
I2
sg16
I1
sg17
(lp833
sg19
(lp834
I12
aI2
asg21
F1.109745979309082
sg22
(lp835
g79
ag24
asg26
I1
sg27
I1
sg28
I1
sg29
F352.07856893539429
sg30
(lp836
F0.48099999999999998
aF0.88900000000000001
asg32
g33
sg34
I01
sa(dp837
g8
(lp838
I1
aI0
asg10
(lp839
sg12
I116
sg13
g14
sg15
I2
sg16
I1
sg17
(lp840
sg19
(lp841
I1
aI11
asg21
F1.0887889862060547
sg22
(lp842
g64
ag25
asg26
I1
sg27
I0
sg28
I0
sg29
F355.14896202087402
sg30
(lp843
F0.90000000000000002
aF0.48099999999999998
asg32
g33
sg34
I01
sa(dp844
g8
(lp845
I1
aI1
asg10
(lp846
sg12
I117
sg13
g14
sg15
I2
sg16
I1
sg17
(lp847
sg19
(lp848
I12
aI7
asg21
F1.4389469623565674
sg22
(lp849
g79
ag56
asg26
I1
sg27
I0
sg28
I1
sg29
F358.21909308433533
sg30
(lp850
F0.48099999999999998
aF0.050000000000000003
asg32
g33
sg34
I00
sa(dp851
g8
(lp852
I1
aI1
asg10
(lp853
sg12
I118
sg13
g14
sg15
I2
sg16
I1
sg17
(lp854
sg19
(lp855
I2
aI11
asg21
F0.84398317337036133
sg22
(lp856
g24
ag25
asg26
I1
sg27
I0
sg28
I0
sg29
F361.28881311416626
sg30
(lp857
F0.88900000000000001
aF0.48099999999999998
asg32
g33
sg34
I01
sa(dp858
g8
(lp859
I1
aI1
asg10
(lp860
sg12
I119
sg13
g14
sg15
I2
sg16
I1
sg17
(lp861
sg19
(lp862
I1
aI2
asg21
F1.0927159786224365
sg22
(lp863
g64
ag24
asg26
I1
sg27
I0
sg28
I0
sg29
F364.3584930896759
sg30
(lp864
F0.90000000000000002
aF0.88900000000000001
asg32
g33
sg34
I01
sa(dp865
g8
(lp866
I0
aI1
asg10
(lp867
sg12
I120
sg13
g14
sg15
I2
sg16
I0
sg17
(lp868
sg19
(lp869
I7
aI11
asg21
F1.13919997215271
sg22
(lp870
g56
ag25
asg26
I1
sg27
I1
sg28
I0
sg29
F367.42874002456665
sg30
(lp871
F0.050000000000000003
aF0.48099999999999998
asg32
g33
sg34
I00
sa(dp872
g8
(lp873
I0
aI0
asg10
(lp874
sg12
I121
sg13
g14
sg15
I2
sg16
I0
sg17
(lp875
sg19
(lp876
I6
aI7
asg21
F1.533966064453125
sg22
(lp877
g41
ag56
asg26
I1
sg27
I0
sg28
I0
sg29
F370.49840712547302
sg30
(lp878
F0.060999999999999999
aF0.050000000000000003
asg32
g33
sg34
I01
sa(dp879
g8
(lp880
I1
aI0
asg10
(lp881
sg12
I122
sg13
g14
sg15
I2
sg16
I1
sg17
(lp882
sg19
(lp883
I1
aI7
asg21
F0.62389612197875977
sg22
(lp884
g64
ag56
asg26
I1
sg27
I0
sg28
I0
sg29
F373.56835007667542
sg30
(lp885
F0.90000000000000002
aF0.050000000000000003
asg32
g33
sg34
I01
sa(dp886
g8
(lp887
I0
aI1
asg10
(lp888
sg12
I123
sg13
g14
sg15
I2
sg16
I1
sg17
(lp889
sg19
(lp890
I7
aI1
asg21
F0.79422783851623535
sg22
(lp891
g56
ag64
asg26
I1
sg27
I1
sg28
I1
sg29
F376.63844394683838
sg30
(lp892
F0.050000000000000003
aF0.90000000000000002
asg32
g33
sg34
I01
sa(dp893
g8
(lp894
I0
aI1
asg10
(lp895
sg12
I124
sg13
g14
sg15
I2
sg16
I1
sg17
(lp896
sg19
(lp897
I6
aI12
asg21
F1.2454450130462646
sg22
(lp898
g41
ag79
asg26
I1
sg27
I1
sg28
I1
sg29
F379.70838403701782
sg30
(lp899
F0.060999999999999999
aF0.48099999999999998
asg32
g33
sg34
I01
sa(dp900
g8
(lp901
I0
aI1
asg10
(lp902
sg12
I125
sg13
g14
sg15
I2
sg16
I1
sg17
(lp903
sg19
(lp904
I7
aI2
asg21
F0.92027187347412109
sg22
(lp905
g56
ag24
asg26
I1
sg27
I1
sg28
I1
sg29
F382.77891111373901
sg30
(lp906
F0.050000000000000003
aF0.88900000000000001
asg32
g33
sg34
I01
sa(dp907
g8
(lp908
I1
aI0
asg10
(lp909
sg12
I126
sg13
g14
sg15
I2
sg16
I1
sg17
(lp910
sg19
(lp911
I2
aI6
asg21
F0.80852794647216797
sg22
(lp912
g24
ag41
asg26
I1
sg27
I0
sg28
I0
sg29
F385.84832811355591
sg30
(lp913
F0.88900000000000001
aF0.060999999999999999
asg32
g33
sg34
I01
sa(dp914
g8
(lp915
I1
aI0
asg10
(lp916
sg12
I127
sg13
g14
sg15
I2
sg16
I1
sg17
(lp917
sg19
(lp918
I1
aI2
asg21
F0.7657618522644043
sg22
(lp919
g64
ag24
asg26
I1
sg27
I0
sg28
I0
sg29
F388.91826796531677
sg30
(lp920
F0.90000000000000002
aF0.88900000000000001
asg32
g33
sg34
I01
sa(dp921
g8
(lp922
I1
aI0
asg10
(lp923
sg12
I128
sg13
g14
sg15
I2
sg16
I1
sg17
(lp924
sg19
(lp925
I1
aI11
asg21
F0.60908007621765137
sg22
(lp926
g64
ag25
asg26
I1
sg27
I0
sg28
I0
sg29
F391.98842811584473
sg30
(lp927
F0.90000000000000002
aF0.48099999999999998
asg32
g33
sg34
I01
sa(dp928
g8
(lp929
I1
aI0
asg10
(lp930
sg12
I129
sg13
g14
sg15
I2
sg16
I1
sg17
(lp931
sg19
(lp932
I2
aI6
asg21
F0.90277314186096191
sg22
(lp933
g24
ag41
asg26
I1
sg27
I0
sg28
I0
sg29
F395.05833005905151
sg30
(lp934
F0.88900000000000001
aF0.060999999999999999
asg32
g33
sg34
I01
sa(dp935
g8
(lp936
I0
aI1
asg10
(lp937
sg12
I130
sg13
g14
sg15
I2
sg16
I1
sg17
(lp938
sg19
(lp939
I12
aI2
asg21
F0.8256380558013916
sg22
(lp940
g79
ag24
asg26
I1
sg27
I1
sg28
I1
sg29
F398.12848711013794
sg30
(lp941
F0.48099999999999998
aF0.88900000000000001
asg32
g33
sg34
I01
sa(dp942
g8
(lp943
I0
aI1
asg10
(lp944
sg12
I131
sg13
g14
sg15
I2
sg16
I1
sg17
(lp945
sg19
(lp946
I6
aI2
asg21
F0.68052792549133301
sg22
(lp947
g41
ag24
asg26
I1
sg27
I1
sg28
I1
sg29
F401.19817304611206
sg30
(lp948
F0.060999999999999999
aF0.88900000000000001
asg32
g33
sg34
I01
sa(dp949
g8
(lp950
I0
aI0
asg10
(lp951
sg12
I132
sg13
g14
sg15
I2
sg16
I0
sg17
(lp952
sg19
(lp953
I12
aI6
asg21
F0.85067391395568848
sg22
(lp954
g79
ag41
asg26
I1
sg27
I0
sg28
I1
sg29
F404.26810693740845
sg30
(lp955
F0.48099999999999998
aF0.060999999999999999
asg32
g33
sg34
I00
sa(dp956
g8
(lp957
I1
aI0
asg10
(lp958
sg12
I133
sg13
g14
sg15
I2
sg16
I1
sg17
(lp959
sg19
(lp960
I1
aI12
asg21
F1.031919002532959
sg22
(lp961
g64
ag79
asg26
I1
sg27
I0
sg28
I0
sg29
F407.33823204040527
sg30
(lp962
F0.90000000000000002
aF0.48099999999999998
asg32
g33
sg34
I01
sa(dp963
g8
(lp964
I1
aI0
asg10
(lp965
sg12
I134
sg13
g14
sg15
I2
sg16
I1
sg17
(lp966
sg19
(lp967
I2
aI11
asg21
F0.63910102844238281
sg22
(lp968
g24
ag25
asg26
I1
sg27
I0
sg28
I0
sg29
F410.40834307670593
sg30
(lp969
F0.88900000000000001
aF0.48099999999999998
asg32
g33
sg34
I01
sa(dp970
g8
(lp971
I1
aI1
asg10
(lp972
sg12
I135
sg13
g14
sg15
I2
sg16
I1
sg17
(lp973
sg19
(lp974
I12
aI1
asg21
F0.83216404914855957
sg22
(lp975
g79
ag64
asg26
I1
sg27
I1
sg28
I1
sg29
F413.47794604301453
sg30
(lp976
F0.48099999999999998
aF0.90000000000000002
asg32
g33
sg34
I01
sa(dp977
g8
(lp978
I0
aI1
asg10
(lp979
sg12
I136
sg13
g14
sg15
I2
sg16
I1
sg17
(lp980
sg19
(lp981
I6
aI1
asg21
F0.72042489051818848
sg22
(lp982
g41
ag64
asg26
I1
sg27
I1
sg28
I1
sg29
F416.54797101020813
sg30
(lp983
F0.060999999999999999
aF0.90000000000000002
asg32
g33
sg34
I01
sa(dp984
g8
(lp985
I1
aI0
asg10
(lp986
sg12
I137
sg13
g14
sg15
I2
sg16
I1
sg17
(lp987
sg19
(lp988
I1
aI6
asg21
F0.85707306861877441
sg22
(lp989
g64
ag41
asg26
I1
sg27
I0
sg28
I0
sg29
F419.61841106414795
sg30
(lp990
F0.90000000000000002
aF0.060999999999999999
asg32
g33
sg34
I01
sa(dp991
g8
(lp992
I0
aI0
asg10
(lp993
sg12
I138
sg13
g14
sg15
I2
sg16
I0
sg17
(lp994
sg19
(lp995
I11
aI12
asg21
F1.1174800395965576
sg22
(lp996
g25
ag79
asg26
I1
sg27
I0
sg28
I1
sg29
F422.68813300132751
sg30
(lp997
F0.48099999999999998
aF0.48099999999999998
asg32
g33
sg34
I00
sa(dp998
g8
(lp999
I1
aI1
asg10
(lp1000
sg12
I139
sg13
g14
sg15
I2
sg16
I1
sg17
(lp1001
sg19
(lp1002
I7
aI1
asg21
F0.94976019859313965
sg22
(lp1003
g56
ag64
asg26
I1
sg27
I1
sg28
I1
sg29
F425.75799703598022
sg30
(lp1004
F0.050000000000000003
aF0.90000000000000002
asg32
g33
sg34
I01
sa(dp1005
g8
(lp1006
I1
aI0
asg10
(lp1007
sg12
I140
sg13
g14
sg15
I2
sg16
I1
sg17
(lp1008
sg19
(lp1009
I1
aI12
asg21
F0.69240188598632812
sg22
(lp1010
g64
ag79
asg26
I1
sg27
I0
sg28
I0
sg29
F428.82807993888855
sg30
(lp1011
F0.90000000000000002
aF0.48099999999999998
asg32
g33
sg34
I01
sa(dp1012
g8
(lp1013
I0
aI1
asg10
(lp1014
sg12
I141
sg13
g14
sg15
I2
sg16
I1
sg17
(lp1015
sg19
(lp1016
I12
aI1
asg21
F0.67103409767150879
sg22
(lp1017
g79
ag64
asg26
I1
sg27
I1
sg28
I1
sg29
F431.89823198318481
sg30
(lp1018
F0.48099999999999998
aF0.90000000000000002
asg32
g33
sg34
I01
sa(dp1019
g8
(lp1020
I0
aI0
asg10
(lp1021
sg12
I142
sg13
g14
sg15
I2
sg16
I0
sg17
(lp1022
sg19
(lp1023
I6
aI11
asg21
F1.0775210857391357
sg22
(lp1024
g41
ag25
asg26
I1
sg27
I1
sg28
I0
sg29
F434.96793794631958
sg30
(lp1025
F0.060999999999999999
aF0.48099999999999998
asg32
g33
sg34
I00
sa(dp1026
g8
(lp1027
I0
aI1
asg10
(lp1028
sg12
I143
sg13
g14
sg15
I2
sg16
I1
sg17
(lp1029
sg19
(lp1030
I6
aI1
asg21
F0.75276422500610352
sg22
(lp1031
g41
ag64
asg26
I1
sg27
I1
sg28
I1
sg29
F438.03811311721802
sg30
(lp1032
F0.060999999999999999
aF0.90000000000000002
asg32
g33
sg34
I01
sa(dp1033
g8
(lp1034
I0
aI1
asg10
(lp1035
sg12
I144
sg13
g14
sg15
I2
sg16
I1
sg17
(lp1036
sg19
(lp1037
I6
aI2
asg21
F0.76492404937744141
sg22
(lp1038
g41
ag24
asg26
I1
sg27
I1
sg28
I1
sg29
F441.1081371307373
sg30
(lp1039
F0.060999999999999999
aF0.88900000000000001
asg32
g33
sg34
I01
sa(dp1040
g8
(lp1041
I1
aI1
asg10
(lp1042
sg12
I145
sg13
g14
sg15
I2
sg16
I1
sg17
(lp1043
sg19
(lp1044
I1
aI2
asg21
F0.93487405776977539
sg22
(lp1045
g64
ag24
asg26
I1
sg27
I0
sg28
I0
sg29
F444.17789006233215
sg30
(lp1046
F0.90000000000000002
aF0.88900000000000001
asg32
g33
sg34
I01
sa(dp1047
g8
(lp1048
I0
aI1
asg10
(lp1049
sg12
I146
sg13
g14
sg15
I2
sg16
I1
sg17
(lp1050
sg19
(lp1051
I11
aI1
asg21
F0.75636005401611328
sg22
(lp1052
g25
ag64
asg26
I1
sg27
I1
sg28
I1
sg29
F447.24786400794983
sg30
(lp1053
F0.48099999999999998
aF0.90000000000000002
asg32
g33
sg34
I01
sa(dp1054
g8
(lp1055
I0
aI1
asg10
(lp1056
sg12
I147
sg13
g14
sg15
I2
sg16
I1
sg17
(lp1057
sg19
(lp1058
I7
aI1
asg21
F0.72387504577636719
sg22
(lp1059
g56
ag64
asg26
I1
sg27
I1
sg28
I1
sg29
F450.31781792640686
sg30
(lp1060
F0.050000000000000003
aF0.90000000000000002
asg32
g33
sg34
I01
sa(dp1061
g8
(lp1062
I0
aI0
asg10
(lp1063
sg12
I148
sg13
g14
sg15
I2
sg16
I0
sg17
(lp1064
sg19
(lp1065
I7
aI6
asg21
F0.95053219795227051
sg22
(lp1066
g56
ag41
asg26
I1
sg27
I1
sg28
I1
sg29
F453.38764595985413
sg30
(lp1067
F0.050000000000000003
aF0.060999999999999999
asg32
g33
sg34
I01
sa(dp1068
g8
(lp1069
I1
aI0
asg10
(lp1070
sg12
I149
sg13
g14
sg15
I2
sg16
I1
sg17
(lp1071
sg19
(lp1072
I2
aI12
asg21
F0.64803099632263184
sg22
(lp1073
g24
ag79
asg26
I1
sg27
I0
sg28
I0
sg29
F456.45780205726624
sg30
(lp1074
F0.88900000000000001
aF0.48099999999999998
asg32
g33
sg34
I01
sa(dp1075
g8
(lp1076
I1
aI0
asg10
(lp1077
sg12
I150
sg13
g14
sg15
I2
sg16
I1
sg17
(lp1078
sg19
(lp1079
I2
aI6
asg21
F0.88550186157226562
sg22
(lp1080
g24
ag41
asg26
I1
sg27
I0
sg28
I0
sg29
F459.52758002281189
sg30
(lp1081
F0.88900000000000001
aF0.060999999999999999
asg32
g33
sg34
I01
sa(dp1082
g8
(lp1083
I0
aI1
asg10
(lp1084
sg12
I151
sg13
g14
sg15
I2
sg16
I0
sg17
(lp1085
sg19
(lp1086
I7
aI11
asg21
F1.1339800357818604
sg22
(lp1087
g56
ag25
asg26
I1
sg27
I1
sg28
I0
sg29
F462.59815001487732
sg30
(lp1088
F0.050000000000000003
aF0.48099999999999998
asg32
g33
sg34
I00
sa(dp1089
g8
(lp1090
I0
aI1
asg10
(lp1091
sg12
I152
sg13
g14
sg15
I2
sg16
I1
sg17
(lp1092
sg19
(lp1093
I7
aI12
asg21
F1.6982018947601318
sg22
(lp1094
g56
ag79
asg26
I1
sg27
I1
sg28
I1
sg29
F465.66783404350281
sg30
(lp1095
F0.050000000000000003
aF0.48099999999999998
asg32
g33
sg34
I01
sa(dp1096
g8
(lp1097
I0
aI1
asg10
(lp1098
sg12
I153
sg13
g14
sg15
I2
sg16
I1
sg17
(lp1099
sg19
(lp1100
I6
aI1
asg21
F0.69839715957641602
sg22
(lp1101
g41
ag64
asg26
I1
sg27
I1
sg28
I1
sg29
F468.73809599876404
sg30
(lp1102
F0.060999999999999999
aF0.90000000000000002
asg32
g33
sg34
I01
sa(dp1103
g8
(lp1104
I0
aI1
asg10
(lp1105
sg12
I154
sg13
g14
sg15
I2
sg16
I1
sg17
(lp1106
sg19
(lp1107
I11
aI2
asg21
F0.80070209503173828
sg22
(lp1108
g25
ag24
asg26
I1
sg27
I1
sg28
I1
sg29
F471.8078761100769
sg30
(lp1109
F0.48099999999999998
aF0.88900000000000001
asg32
g33
sg34
I01
sa(dp1110
g8
(lp1111
I1
aI0
asg10
(lp1112
sg12
I155
sg13
g14
sg15
I2
sg16
I0
sg17
(lp1113
sg19
(lp1114
I2
aI6
asg21
F1.1281688213348389
sg22
(lp1115
g24
ag41
asg26
I1
sg27
I0
sg28
I1
sg29
F474.8775589466095
sg30
(lp1116
F0.88900000000000001
aF0.060999999999999999
asg32
g33
sg34
I00
sa(dp1117
g8
(lp1118
I1
aI1
asg10
(lp1119
sg12
I156
sg13
g14
sg15
I2
sg16
I1
sg17
(lp1120
sg19
(lp1121
I2
aI12
asg21
F0.85922789573669434
sg22
(lp1122
g24
ag79
asg26
I1
sg27
I0
sg28
I0
sg29
F477.94750308990479
sg30
(lp1123
F0.88900000000000001
aF0.48099999999999998
asg32
g33
sg34
I01
sa(dp1124
g8
(lp1125
I0
aI1
asg10
(lp1126
sg12
I157
sg13
g14
sg15
I2
sg16
I1
sg17
(lp1127
sg19
(lp1128
I7
aI11
asg21
F1.4010100364685059
sg22
(lp1129
g56
ag25
asg26
I1
sg27
I1
sg28
I1
sg29
F481.01734209060669
sg30
(lp1130
F0.050000000000000003
aF0.48099999999999998
asg32
g33
sg34
I01
sa(dp1131
g8
(lp1132
I0
aI1
asg10
(lp1133
sg12
I158
sg13
g14
sg15
I2
sg16
I1
sg17
(lp1134
sg19
(lp1135
I6
aI2
asg21
F1.1771440505981445
sg22
(lp1136
g41
ag24
asg26
I1
sg27
I1
sg28
I1
sg29
F484.08741402626038
sg30
(lp1137
F0.060999999999999999
aF0.88900000000000001
asg32
g33
sg34
I01
sa(dp1138
g8
(lp1139
I0
aI0
asg10
(lp1140
sg12
I159
sg13
g14
sg15
I2
sg16
I0
sg17
(lp1141
sg19
(lp1142
I7
aI11
asg21
F1.6396620273590088
sg22
(lp1143
g56
ag25
asg26
I1
sg27
I1
sg28
I1
sg29
F487.15743112564087
sg30
(lp1144
F0.050000000000000003
aF0.48099999999999998
asg32
g33
sg34
I01
sa(dp1145
g8
(lp1146
I0
aI0
asg10
(lp1147
sg12
I160
sg13
g14
sg15
I2
sg16
I0
sg17
(lp1148
sg19
(lp1149
I12
aI11
asg21
F1.5735459327697754
sg22
(lp1150
g79
ag25
asg26
I1
sg27
I0
sg28
I1
sg29
F490.22756910324097
sg30
(lp1151
F0.48099999999999998
aF0.48099999999999998
asg32
g33
sg34
I00
sa(dp1152
g8
(lp1153
I1
aI0
asg10
(lp1154
sg12
I161
sg13
g14
sg15
I2
sg16
I1
sg17
(lp1155
sg19
(lp1156
I2
aI7
asg21
F1.2035501003265381
sg22
(lp1157
g24
ag56
asg26
I1
sg27
I0
sg28
I0
sg29
F493.29758095741272
sg30
(lp1158
F0.88900000000000001
aF0.050000000000000003
asg32
g33
sg34
I01
sa(dp1159
g8
(lp1160
I1
aI1
asg10
(lp1161
sg12
I162
sg13
g14
sg15
I2
sg16
I1
sg17
(lp1162
sg19
(lp1163
I1
aI2
asg21
F1.2835769653320312
sg22
(lp1164
g64
ag24
asg26
I1
sg27
I0
sg28
I1
sg29
F496.36747312545776
sg30
(lp1165
F0.90000000000000002
aF0.88900000000000001
asg32
g33
sg34
I00
sa(dp1166
g8
(lp1167
I0
aI1
asg10
(lp1168
sg12
I163
sg13
g14
sg15
I2
sg16
I0
sg17
(lp1169
sg19
(lp1170
I12
aI11
asg21
F0.936309814453125
sg22
(lp1171
g79
ag25
asg26
I1
sg27
I0
sg28
I0
sg29
F499.43759989738464
sg30
(lp1172
F0.48099999999999998
aF0.48099999999999998
asg32
g33
sg34
I01
sa(dp1173
g8
(lp1174
I0
aI0
asg10
(lp1175
sg12
I164
sg13
g14
sg15
I2
sg16
I0
sg17
(lp1176
sg19
(lp1177
I7
aI6
asg21
F1.0725758075714111
sg22
(lp1178
g56
ag41
asg26
I1
sg27
I1
sg28
I1
sg29
F502.50767111778259
sg30
(lp1179
F0.050000000000000003
aF0.060999999999999999
asg32
g33
sg34
I01
sa(dp1180
g8
(lp1181
I0
aI1
asg10
(lp1182
sg12
I165
sg13
g14
sg15
I2
sg16
I1
sg17
(lp1183
sg19
(lp1184
I6
aI2
asg21
F0.75885510444641113
sg22
(lp1185
g41
ag24
asg26
I1
sg27
I1
sg28
I1
sg29
F505.57714104652405
sg30
(lp1186
F0.060999999999999999
aF0.88900000000000001
asg32
g33
sg34
I01
sa(dp1187
g8
(lp1188
I1
aI0
asg10
(lp1189
sg12
I166
sg13
g14
sg15
I2
sg16
I1
sg17
(lp1190
sg19
(lp1191
I1
aI6
asg21
F1.0976791381835938
sg22
(lp1192
g64
ag41
asg26
I1
sg27
I0
sg28
I0
sg29
F508.64732193946838
sg30
(lp1193
F0.90000000000000002
aF0.060999999999999999
asg32
g33
sg34
I01
sa(dp1194
g8
(lp1195
I0
aI0
asg10
(lp1196
sg12
I167
sg13
g14
sg15
I2
sg16
I0
sg17
(lp1197
sg19
(lp1198
I12
aI6
asg21
F1.6725559234619141
sg22
(lp1199
g79
ag41
asg26
I1
sg27
I0
sg28
I1
sg29
F511.71759700775146
sg30
(lp1200
F0.48099999999999998
aF0.060999999999999999
asg32
g33
sg34
I00
sa(dp1201
g8
(lp1202
I1
aI1
asg10
(lp1203
sg12
I168
sg13
g14
sg15
I2
sg16
I1
sg17
(lp1204
sg19
(lp1205
I2
aI11
asg21
F0.92026591300964355
sg22
(lp1206
g24
ag25
asg26
I1
sg27
I0
sg28
I0
sg29
F514.78730010986328
sg30
(lp1207
F0.88900000000000001
aF0.48099999999999998
asg32
g33
sg34
I01
sa(dp1208
g8
(lp1209
I1
aI0
asg10
(lp1210
sg12
I169
sg13
g14
sg15
I2
sg16
I1
sg17
(lp1211
sg19
(lp1212
I1
aI7
asg21
F0.74149799346923828
sg22
(lp1213
g64
ag56
asg26
I1
sg27
I0
sg28
I0
sg29
F517.85715007781982
sg30
(lp1214
F0.90000000000000002
aF0.050000000000000003
asg32
g33
sg34
I01
sa(dp1215
g8
(lp1216
I0
aI0
asg10
(lp1217
sg12
I170
sg13
g14
sg15
I2
sg16
I0
sg17
(lp1218
sg19
(lp1219
I6
aI11
asg21
F1.4626469612121582
sg22
(lp1220
g41
ag25
asg26
I1
sg27
I1
sg28
I0
sg29
F520.92724609375
sg30
(lp1221
F0.060999999999999999
aF0.48099999999999998
asg32
g33
sg34
I00
sa(dp1222
g8
(lp1223
I0
aI0
asg10
(lp1224
sg12
I171
sg13
g14
sg15
I2
sg16
I0
sg17
(lp1225
sg19
(lp1226
I11
aI6
asg21
F1.7119688987731934
sg22
(lp1227
g25
ag41
asg26
I1
sg27
I0
sg28
I1
sg29
F523.99718689918518
sg30
(lp1228
F0.48099999999999998
aF0.060999999999999999
asg32
g33
sg34
I00
sa(dp1229
g8
(lp1230
I0
aI0
asg10
(lp1231
sg12
I172
sg13
g14
sg15
I2
sg16
I0
sg17
(lp1232
sg19
(lp1233
I6
aI7
asg21
F1.4879229068756104
sg22
(lp1234
g41
ag56
asg26
I1
sg27
I0
sg28
I1
sg29
F527.06700801849365
sg30
(lp1235
F0.060999999999999999
aF0.050000000000000003
asg32
g33
sg34
I00
sa(dp1236
g8
(lp1237
I0
aI1
asg10
(lp1238
sg12
I173
sg13
g14
sg15
I2
sg16
I1
sg17
(lp1239
sg19
(lp1240
I7
aI2
asg21
F0.97152018547058105
sg22
(lp1241
g56
ag24
asg26
I1
sg27
I1
sg28
I1
sg29
F530.13721609115601
sg30
(lp1242
F0.050000000000000003
aF0.88900000000000001
asg32
g33
sg34
I01
sa(dp1243
g8
(lp1244
I1
aI0
asg10
(lp1245
sg12
I174
sg13
g14
sg15
I2
sg16
I1
sg17
(lp1246
sg19
(lp1247
I1
aI6
asg21
F1.0517768859863281
sg22
(lp1248
g64
ag41
asg26
I1
sg27
I0
sg28
I0
sg29
F533.20726609230042
sg30
(lp1249
F0.90000000000000002
aF0.060999999999999999
asg32
g33
sg34
I01
sa(dp1250
g8
(lp1251
I1
aI1
asg10
(lp1252
sg12
I175
sg13
g14
sg15
I2
sg16
I1
sg17
(lp1253
sg19
(lp1254
I12
aI1
asg21
F1.244304895401001
sg22
(lp1255
g79
ag64
asg26
I1
sg27
I1
sg28
I1
sg29
F536.27699708938599
sg30
(lp1256
F0.48099999999999998
aF0.90000000000000002
asg32
g33
sg34
I01
sa(dp1257
g8
(lp1258
I1
aI0
asg10
(lp1259
sg12
I176
sg13
g14
sg15
I2
sg16
I1
sg17
(lp1260
sg19
(lp1261
I2
aI12
asg21
F0.89712309837341309
sg22
(lp1262
g24
ag79
asg26
I1
sg27
I0
sg28
I0
sg29
F539.34737300872803
sg30
(lp1263
F0.88900000000000001
aF0.48099999999999998
asg32
g33
sg34
I01
sa(dp1264
g8
(lp1265
I0
aI0
asg10
(lp1266
sg12
I177
sg13
g14
sg15
I2
sg16
I0
sg17
(lp1267
sg19
(lp1268
I7
aI6
asg21
F0.84197711944580078
sg22
(lp1269
g56
ag41
asg26
I1
sg27
I1
sg28
I1
sg29
F542.41733193397522
sg30
(lp1270
F0.050000000000000003
aF0.060999999999999999
asg32
g33
sg34
I01
sa(dp1271
g8
(lp1272
I1
aI1
asg10
(lp1273
sg12
I178
sg13
g14
sg15
I2
sg16
I1
sg17
(lp1274
sg19
(lp1275
I12
aI2
asg21
F0.89951705932617188
sg22
(lp1276
g79
ag24
asg26
I1
sg27
I1
sg28
I1
sg29
F545.48688101768494
sg30
(lp1277
F0.48099999999999998
aF0.88900000000000001
asg32
g33
sg34
I01
sa(dp1278
g8
(lp1279
I0
aI0
asg10
(lp1280
sg12
I179
sg13
g14
sg15
I2
sg16
I0
sg17
(lp1281
sg19
(lp1282
I6
aI12
asg21
F0.91219210624694824
sg22
(lp1283
g41
ag79
asg26
I1
sg27
I1
sg28
I0
sg29
F548.55704998970032
sg30
(lp1284
F0.060999999999999999
aF0.48099999999999998
asg32
g33
sg34
I00
sa(dp1285
g8
(lp1286
I0
aI1
asg10
(lp1287
sg12
I180
sg13
g14
sg15
I2
sg16
I1
sg17
(lp1288
sg19
(lp1289
I7
aI1
asg21
F0.67733907699584961
sg22
(lp1290
g56
ag64
asg26
I1
sg27
I1
sg28
I1
sg29
F551.62701606750488
sg30
(lp1291
F0.050000000000000003
aF0.90000000000000002
asg32
g33
sg34
I01
sa(dp1292
g8
(lp1293
I0
aI1
asg10
(lp1294
sg12
I181
sg13
g14
sg15
I2
sg16
I0
sg17
(lp1295
sg19
(lp1296
I8
aI3
asg21
F1.2297258377075195
sg22
(lp1297
S'images/15.png'
p1298
aS'images/1.png'
p1299
asg26
I1
sg27
I1
sg28
I0
sg29
F554.69707298278809
sg30
(lp1300
F0.065000000000000002
aF0.88900000000000001
asg32
(lp1301
I0
aI3
aI4
aI5
aI8
aI9
aI10
aI13
aI14
asg34
I00
sa(dp1302
g8
(lp1303
I1
aI0
asg10
(lp1304
sg12
I182
sg13
g14
sg15
I2
sg16
I1
sg17
(lp1305
sg19
(lp1306
I3
aI5
asg21
F1.2981979846954346
sg22
(lp1307
g1299
aS'images/10.png'
p1308
asg26
I1
sg27
I0
sg28
I0
sg29
F557.76686191558838
sg30
(lp1309
F0.88900000000000001
aF0.20999999999999999
asg32
g1301
sg34
I01
sa(dp1310
g8
(lp1311
I0
aI1
asg10
(lp1312
sg12
I183
sg13
g14
sg15
I2
sg16
I1
sg17
(lp1313
sg19
(lp1314
I14
aI4
asg21
F1.547572135925293
sg22
(lp1315
S'images/11.png'
p1316
aS'images/14.png'
p1317
asg26
I1
sg27
I1
sg28
I1
sg29
F560.83674097061157
sg30
(lp1318
F0.57499999999999996
aF0.753
asg32
g1301
sg34
I01
sa(dp1319
g8
(lp1320
I1
aI1
asg10
(lp1321
sg12
I184
sg13
g14
sg15
I2
sg16
I1
sg17
(lp1322
sg19
(lp1323
I3
aI0
asg21
F1.2895901203155518
sg22
(lp1324
g1299
aS'images/4.png'
p1325
asg26
I1
sg27
I0
sg28
I0
sg29
F563.90678310394287
sg30
(lp1326
F0.88900000000000001
aF0.85099999999999998
asg32
g1301
sg34
I01
sa(dp1327
g8
(lp1328
I1
aI0
asg10
(lp1329
sg12
I185
sg13
g14
sg15
I2
sg16
I1
sg17
(lp1330
sg19
(lp1331
I0
aI5
asg21
F1.2123360633850098
sg22
(lp1332
g1325
ag1308
asg26
I1
sg27
I0
sg28
I0
sg29
F566.97670412063599
sg30
(lp1333
F0.85099999999999998
aF0.20999999999999999
asg32
g1301
sg34
I01
sa(dp1334
g8
(lp1335
I1
aI0
asg10
(lp1336
sg12
I186
sg13
g14
sg15
I2
sg16
I1
sg17
(lp1337
sg19
(lp1338
I14
aI5
asg21
F1.0677258968353271
sg22
(lp1339
g1316
ag1308
asg26
I1
sg27
I0
sg28
I0
sg29
F570.04658508300781
sg30
(lp1340
F0.57499999999999996
aF0.20999999999999999
asg32
g1301
sg34
I01
sa(dp1341
g8
(lp1342
I0
aI0
asg10
(lp1343
sg12
I187
sg13
g14
sg15
I2
sg16
I0
sg17
(lp1344
sg19
(lp1345
I5
aI13
asg21
F1.2035880088806152
sg22
(lp1346
g1308
aS'images/8.png'
p1347
asg26
I1
sg27
I1
sg28
I1
sg29
F573.11651492118835
sg30
(lp1348
F0.20999999999999999
aF0.48099999999999998
asg32
g1301
sg34
I01
sa(dp1349
g8
(lp1350
I0
aI1
asg10
(lp1351
sg12
I188
sg13
g14
sg15
I2
sg16
I1
sg17
(lp1352
sg19
(lp1353
I5
aI0
asg21
F1.0029258728027344
sg22
(lp1354
g1308
ag1325
asg26
I1
sg27
I1
sg28
I1
sg29
F576.18664312362671
sg30
(lp1355
F0.20999999999999999
aF0.85099999999999998
asg32
g1301
sg34
I01
sa(dp1356
g8
(lp1357
I1
aI1
asg10
(lp1358
sg12
I189
sg13
g14
sg15
I2
sg16
I1
sg17
(lp1359
sg19
(lp1360
I13
aI4
asg21
F0.868988037109375
sg22
(lp1361
g1347
ag1317
asg26
I1
sg27
I1
sg28
I1
sg29
F579.25670194625854
sg30
(lp1362
F0.48099999999999998
aF0.753
asg32
g1301
sg34
I01
sa(dp1363
g8
(lp1364
I1
aI0
asg10
(lp1365
sg12
I190
sg13
g14
sg15
I2
sg16
I1
sg17
(lp1366
sg19
(lp1367
I0
aI10
asg21
F1.2076630592346191
sg22
(lp1368
g1325
aS'images/13.png'
p1369
asg26
I1
sg27
I0
sg28
I0
sg29
F582.32712507247925
sg30
(lp1370
F0.85099999999999998
aF0.38400000000000001
asg32
g1301
sg34
I01
sa(dp1371
g8
(lp1372
I0
aI0
asg10
(lp1373
sg12
I191
sg13
g14
sg15
I2
sg16
I0
sg17
(lp1374
sg19
(lp1375
I10
aI13
asg21
F1.0629839897155762
sg22
(lp1376
g1369
ag1347
asg26
I1
sg27
I1
sg28
I1
sg29
F585.39657306671143
sg30
(lp1377
F0.38400000000000001
aF0.48099999999999998
asg32
g1301
sg34
I01
sa(dp1378
g8
(lp1379
I1
aI0
asg10
(lp1380
sg12
I192
sg13
g14
sg15
I2
sg16
I1
sg17
(lp1381
sg19
(lp1382
I3
aI5
asg21
F1.154094934463501
sg22
(lp1383
g1299
ag1308
asg26
I1
sg27
I0
sg28
I0
sg29
F588.46722292900085
sg30
(lp1384
F0.88900000000000001
aF0.20999999999999999
asg32
g1301
sg34
I01
sa(dp1385
g8
(lp1386
I0
aI1
asg10
(lp1387
sg12
I193
sg13
g14
sg15
I2
sg16
I1
sg17
(lp1388
sg19
(lp1389
I5
aI4
asg21
F0.76180291175842285
sg22
(lp1390
g1308
ag1317
asg26
I1
sg27
I1
sg28
I1
sg29
F591.53683996200562
sg30
(lp1391
F0.20999999999999999
aF0.753
asg32
g1301
sg34
I01
sa(dp1392
g8
(lp1393
I0
aI0
asg10
(lp1394
sg12
I194
sg13
g14
sg15
I2
sg16
I0
sg17
(lp1395
sg19
(lp1396
I0
aI4
asg21
F0.95413899421691895
sg22
(lp1397
g1325
ag1317
asg26
I1
sg27
I0
sg28
I0
sg29
F594.6065571308136
sg30
(lp1398
F0.85099999999999998
aF0.753
asg32
g1301
sg34
I01
sa(dp1399
g8
(lp1400
I1
aI0
asg10
(lp1401
sg12
I195
sg13
g14
sg15
I2
sg16
I0
sg17
(lp1402
sg19
(lp1403
I4
aI13
asg21
F0.76440000534057617
sg22
(lp1404
g1317
ag1347
asg26
I1
sg27
I0
sg28
I1
sg29
F597.67697811126709
sg30
(lp1405
F0.753
aF0.48099999999999998
asg32
g1301
sg34
I00
sa(dp1406
g8
(lp1407
I0
aI0
asg10
(lp1408
sg12
I196
sg13
g14
sg15
I2
sg16
I0
sg17
(lp1409
sg19
(lp1410
I8
aI10
asg21
F0.87803792953491211
sg22
(lp1411
g1298
ag1369
asg26
I1
sg27
I1
sg28
I1
sg29
F600.74691200256348
sg30
(lp1412
F0.065000000000000002
aF0.38400000000000001
asg32
g1301
sg34
I01
sa(dp1413
g8
(lp1414
I0
aI1
asg10
(lp1415
sg12
I197
sg13
g14
sg15
I2
sg16
I0
sg17
(lp1416
sg19
(lp1417
I9
aI13
asg21
F0.4297490119934082
sg22
(lp1418
S'images/3.png'
p1419
ag1347
asg26
I1
sg27
I1
sg28
I0
sg29
F603.81637191772461
sg30
(lp1420
F0.104
aF0.48099999999999998
asg32
g1301
sg34
I00
sa(dp1421
g8
(lp1422
I1
aI1
asg10
(lp1423
sg12
I198
sg13
g14
sg15
I2
sg16
I1
sg17
(lp1424
sg19
(lp1425
I3
aI10
asg21
F0.45345592498779297
sg22
(lp1426
g1299
ag1369
asg26
I1
sg27
I0
sg28
I1
sg29
F606.88657903671265
sg30
(lp1427
F0.88900000000000001
aF0.38400000000000001
asg32
g1301
sg34
I00
sa(dp1428
g8
(lp1429
I1
aI0
asg10
(lp1430
sg12
I199
sg13
g14
sg15
I2
sg16
I0
sg17
(lp1431
sg19
(lp1432
I4
aI14
asg21
F0.56708216667175293
sg22
(lp1433
g1317
ag1316
asg26
I1
sg27
I0
sg28
I1
sg29
F609.95620894432068
sg30
(lp1434
F0.753
aF0.57499999999999996
asg32
g1301
sg34
I00
sa(dp1435
g8
(lp1436
I1
aI0
asg10
(lp1437
sg12
I200
sg13
g14
sg15
I2
sg16
I1
sg17
(lp1438
sg19
(lp1439
I10
aI8
asg21
F0.63575887680053711
sg22
(lp1440
g1369
ag1298
asg26
I1
sg27
I0
sg28
I0
sg29
F613.02634501457214
sg30
(lp1441
F0.38400000000000001
aF0.065000000000000002
asg32
g1301
sg34
I01
sa(dp1442
g8
(lp1443
I1
aI0
asg10
(lp1444
sg12
I201
sg13
g14
sg15
I2
sg16
I1
sg17
(lp1445
sg19
(lp1446
I4
aI9
asg21
F1.0309081077575684
sg22
(lp1447
g1317
ag1419
asg26
I1
sg27
I0
sg28
I0
sg29
F616.09667110443115
sg30
(lp1448
F0.753
aF0.104
asg32
g1301
sg34
I01
sa(dp1449
g8
(lp1450
I0
aI0
asg10
(lp1451
sg12
I202
sg13
g14
sg15
I2
sg16
I0
sg17
(lp1452
sg19
(lp1453
I14
aI10
asg21
F0.94225597381591797
sg22
(lp1454
g1316
ag1369
asg26
I1
sg27
I0
sg28
I1
sg29
F619.16694903373718
sg30
(lp1455
F0.57499999999999996
aF0.38400000000000001
asg32
g1301
sg34
I00
sa(dp1456
g8
(lp1457
I0
aI0
asg10
(lp1458
sg12
I203
sg13
g14
sg15
I2
sg16
I0
sg17
(lp1459
sg19
(lp1460
I5
aI9
asg21
F0.97703289985656738
sg22
(lp1461
g1308
ag1419
asg26
I1
sg27
I0
sg28
I0
sg29
F622.2365620136261
sg30
(lp1462
F0.20999999999999999
aF0.104
asg32
g1301
sg34
I01
sa(dp1463
g8
(lp1464
I0
aI1
asg10
(lp1465
sg12
I204
sg13
g14
sg15
I2
sg16
I1
sg17
(lp1466
sg19
(lp1467
I5
aI10
asg21
F0.44966816902160645
sg22
(lp1468
g1308
ag1369
asg26
I1
sg27
I1
sg28
I1
sg29
F625.30674195289612
sg30
(lp1469
F0.20999999999999999
aF0.38400000000000001
asg32
g1301
sg34
I01
sa(dp1470
g8
(lp1471
I0
aI1
asg10
(lp1472
sg12
I205
sg13
g14
sg15
I2
sg16
I0
sg17
(lp1473
sg19
(lp1474
I13
aI8
asg21
F1.1184401512145996
sg22
(lp1475
g1347
ag1298
asg26
I1
sg27
I0
sg28
I0
sg29
F638.52100801467896
sg30
(lp1476
F0.48099999999999998
aF0.065000000000000002
asg32
g1301
sg34
I01
sa(dp1477
g8
(lp1478
I0
aI0
asg10
(lp1479
sg12
I206
sg13
g14
sg15
I2
sg16
I0
sg17
(lp1480
sg19
(lp1481
I8
aI13
asg21
F0.78203105926513672
sg22
(lp1482
g1298
ag1347
asg26
I1
sg27
I1
sg28
I0
sg29
F641.59045004844666
sg30
(lp1483
F0.065000000000000002
aF0.48099999999999998
asg32
g1301
sg34
I00
sa(dp1484
g8
(lp1485
I1
aI1
asg10
(lp1486
sg12
I207
sg13
g14
sg15
I2
sg16
I1
sg17
(lp1487
sg19
(lp1488
I8
aI0
asg21
F1.942086935043335
sg22
(lp1489
g1298
ag1325
asg26
I1
sg27
I1
sg28
I1
sg29
F644.66074895858765
sg30
(lp1490
F0.065000000000000002
aF0.85099999999999998
asg32
g1301
sg34
I01
sa(dp1491
g8
(lp1492
I1
aI0
asg10
(lp1493
sg12
I208
sg13
g14
sg15
I2
sg16
I1
sg17
(lp1494
sg19
(lp1495
I0
aI5
asg21
F0.81820297241210938
sg22
(lp1496
g1325
ag1308
asg26
I1
sg27
I0
sg28
I0
sg29
F647.73079109191895
sg30
(lp1497
F0.85099999999999998
aF0.20999999999999999
asg32
g1301
sg34
I01
sa(dp1498
g8
(lp1499
I1
aI1
asg10
(lp1500
sg12
I209
sg13
g14
sg15
I2
sg16
I1
sg17
(lp1501
sg19
(lp1502
I5
aI3
asg21
F0.89831709861755371
sg22
(lp1503
g1308
ag1299
asg26
I1
sg27
I1
sg28
I1
sg29
F650.80020809173584
sg30
(lp1504
F0.20999999999999999
aF0.88900000000000001
asg32
g1301
sg34
I01
sa(dp1505
g8
(lp1506
I0
aI0
asg10
(lp1507
sg12
I210
sg13
g14
sg15
I2
sg16
I0
sg17
(lp1508
sg19
(lp1509
I5
aI8
asg21
F1.0575659275054932
sg22
(lp1510
g1308
ag1298
asg26
I1
sg27
I0
sg28
I0
sg29
F653.87034606933594
sg30
(lp1511
F0.20999999999999999
aF0.065000000000000002
asg32
g1301
sg34
I01
sa(dp1512
g8
(lp1513
I0
aI0
asg10
(lp1514
sg12
I211
sg13
g14
sg15
I2
sg16
I0
sg17
(lp1515
sg19
(lp1516
I13
aI9
asg21
F1.0020740032196045
sg22
(lp1517
g1347
ag1419
asg26
I1
sg27
I0
sg28
I0
sg29
F656.94034194946289
sg30
(lp1518
F0.48099999999999998
aF0.104
asg32
g1301
sg34
I01
sa(dp1519
g8
(lp1520
I1
aI1
asg10
(lp1521
sg12
I212
sg13
g14
sg15
I2
sg16
I1
sg17
(lp1522
sg19
(lp1523
I0
aI14
asg21
F0.95844697952270508
sg22
(lp1524
g1325
ag1316
asg26
I1
sg27
I0
sg28
I0
sg29
F660.01032900810242
sg30
(lp1525
F0.85099999999999998
aF0.57499999999999996
asg32
g1301
sg34
I01
sa(dp1526
g8
(lp1527
I0
aI1
asg10
(lp1528
sg12
I213
sg13
g14
sg15
I2
sg16
I0
sg17
(lp1529
sg19
(lp1530
I14
aI3
asg21
F1.1963491439819336
sg22
(lp1531
g1316
ag1299
asg26
I1
sg27
I1
sg28
I0
sg29
F663.08044099807739
sg30
(lp1532
F0.57499999999999996
aF0.88900000000000001
asg32
g1301
sg34
I00
sa(dp1533
g8
(lp1534
I1
aI0
asg10
(lp1535
sg12
I214
sg13
g14
sg15
I2
sg16
I1
sg17
(lp1536
sg19
(lp1537
I10
aI9
asg21
F0.92748594284057617
sg22
(lp1538
g1369
ag1419
asg26
I1
sg27
I0
sg28
I0
sg29
F666.1502480506897
sg30
(lp1539
F0.38400000000000001
aF0.104
asg32
g1301
sg34
I01
sa(dp1540
g8
(lp1541
I1
aI0
asg10
(lp1542
sg12
I215
sg13
g14
sg15
I2
sg16
I0
sg17
(lp1543
sg19
(lp1544
I3
aI5
asg21
F1.3565890789031982
sg22
(lp1545
g1299
ag1308
asg26
I1
sg27
I0
sg28
I1
sg29
F669.22019696235657
sg30
(lp1546
F0.88900000000000001
aF0.20999999999999999
asg32
g1301
sg34
I00
sa(dp1547
g8
(lp1548
I0
aI1
asg10
(lp1549
sg12
I216
sg13
g14
sg15
I2
sg16
I1
sg17
(lp1550
sg19
(lp1551
I10
aI5
asg21
F1.177821159362793
sg22
(lp1552
g1369
ag1308
asg26
I1
sg27
I0
sg28
I1
sg29
F672.29042291641235
sg30
(lp1553
F0.38400000000000001
aF0.20999999999999999
asg32
g1301
sg34
I00
sa(dp1554
g8
(lp1555
I1
aI1
asg10
(lp1556
sg12
I217
sg13
g14
sg15
I2
sg16
I1
sg17
(lp1557
sg19
(lp1558
I13
aI4
asg21
F0.7966151237487793
sg22
(lp1559
g1347
ag1317
asg26
I1
sg27
I1
sg28
I1
sg29
F675.36011600494385
sg30
(lp1560
F0.48099999999999998
aF0.753
asg32
g1301
sg34
I01
sa(dp1561
g8
(lp1562
I0
aI1
asg10
(lp1563
sg12
I218
sg13
g14
sg15
I2
sg16
I1
sg17
(lp1564
sg19
(lp1565
I8
aI3
asg21
F0.12285590171813965
sg22
(lp1566
g1298
ag1299
asg26
I1
sg27
I1
sg28
I1
sg29
F678.43121695518494
sg30
(lp1567
F0.065000000000000002
aF0.88900000000000001
asg32
g1301
sg34
I01
sa(dp1568
g8
(lp1569
I0
aI1
asg10
(lp1570
sg12
I219
sg13
g14
sg15
I2
sg16
I1
sg17
(lp1571
sg19
(lp1572
I9
aI3
asg21
F1.2944498062133789
sg22
(lp1573
g1419
ag1299
asg26
I1
sg27
I1
sg28
I1
sg29
F681.50014400482178
sg30
(lp1574
F0.104
aF0.88900000000000001
asg32
g1301
sg34
I01
sa(dp1575
g8
(lp1576
I1
aI1
asg10
(lp1577
sg12
I220
sg13
g14
sg15
I2
sg16
I1
sg17
(lp1578
sg19
(lp1579
I14
aI0
asg21
F0.65378808975219727
sg22
(lp1580
g1316
ag1325
asg26
I1
sg27
I1
sg28
I1
sg29
F684.57007789611816
sg30
(lp1581
F0.57499999999999996
aF0.85099999999999998
asg32
g1301
sg34
I01
sa(dp1582
g8
(lp1583
I0
aI0
asg10
(lp1584
sg12
I221
sg13
g14
sg15
I2
sg16
I0
sg17
(lp1585
sg19
(lp1586
I10
aI8
asg21
F0.81237101554870605
sg22
(lp1587
g1369
ag1298
asg26
I1
sg27
I0
sg28
I1
sg29
F687.64062905311584
sg30
(lp1588
F0.38400000000000001
aF0.065000000000000002
asg32
g1301
sg34
I00
sa(dp1589
g8
(lp1590
I0
aI1
asg10
(lp1591
sg12
I222
sg13
g14
sg15
I2
sg16
I1
sg17
(lp1592
sg19
(lp1593
I5
aI4
asg21
F0.58943414688110352
sg22
(lp1594
g1308
ag1317
asg26
I1
sg27
I1
sg28
I1
sg29
F690.71015596389771
sg30
(lp1595
F0.20999999999999999
aF0.753
asg32
g1301
sg34
I01
sa(dp1596
g8
(lp1597
I1
aI0
asg10
(lp1598
sg12
I223
sg13
g14
sg15
I2
sg16
I1
sg17
(lp1599
sg19
(lp1600
I0
aI5
asg21
F0.74812698364257812
sg22
(lp1601
g1325
ag1308
asg26
I1
sg27
I0
sg28
I0
sg29
F693.78002595901489
sg30
(lp1602
F0.85099999999999998
aF0.20999999999999999
asg32
g1301
sg34
I01
sa(dp1603
g8
(lp1604
I1
aI1
asg10
(lp1605
sg12
I224
sg13
g14
sg15
I2
sg16
I1
sg17
(lp1606
sg19
(lp1607
I3
aI0
asg21
F1.019625186920166
sg22
(lp1608
g1299
ag1325
asg26
I1
sg27
I0
sg28
I1
sg29
F696.84999990463257
sg30
(lp1609
F0.88900000000000001
aF0.85099999999999998
asg32
g1301
sg34
I00
sa(dp1610
g8
(lp1611
I0
aI0
asg10
(lp1612
sg12
I225
sg13
g14
sg15
I2
sg16
I0
sg17
(lp1613
sg19
(lp1614
I9
aI5
asg21
F0.81820797920227051
sg22
(lp1615
g1419
ag1308
asg26
I1
sg27
I1
sg28
I1
sg29
F699.91997599601746
sg30
(lp1616
F0.104
aF0.20999999999999999
asg32
g1301
sg34
I01
sa(dp1617
g8
(lp1618
I0
aI1
asg10
(lp1619
sg12
I226
sg13
g14
sg15
I2
sg16
I0
sg17
(lp1620
sg19
(lp1621
I5
aI8
asg21
F0.77414393424987793
sg22
(lp1622
g1308
ag1298
asg26
I1
sg27
I0
sg28
I0
sg29
F702.9899001121521
sg30
(lp1623
F0.20999999999999999
aF0.065000000000000002
asg32
g1301
sg34
I01
sa(dp1624
g8
(lp1625
I1
aI0
asg10
(lp1626
sg12
I227
sg13
g14
sg15
I2
sg16
I0
sg17
(lp1627
sg19
(lp1628
I9
aI5
asg21
F0.91084599494934082
sg22
(lp1629
g1419
ag1308
asg26
I1
sg27
I1
sg28
I1
sg29
F706.06019592285156
sg30
(lp1630
F0.104
aF0.20999999999999999
asg32
g1301
sg34
I01
sa(dp1631
g8
(lp1632
I0
aI0
asg10
(lp1633
sg12
I228
sg13
g14
sg15
I2
sg16
I0
sg17
(lp1634
sg19
(lp1635
I13
aI5
asg21
F0.42822813987731934
sg22
(lp1636
g1347
ag1308
asg26
I1
sg27
I0
sg28
I0
sg29
F709.13048601150513
sg30
(lp1637
F0.48099999999999998
aF0.20999999999999999
asg32
g1301
sg34
I01
sa(dp1638
g8
(lp1639
I0
aI0
asg10
(lp1640
sg12
I229
sg13
g14
sg15
I2
sg16
I0
sg17
(lp1641
sg19
(lp1642
I9
aI8
asg21
F1.1386518478393555
sg22
(lp1643
g1419
ag1298
asg26
I1
sg27
I0
sg28
I0
sg29
F712.19979596138
sg30
(lp1644
F0.104
aF0.065000000000000002
asg32
g1301
sg34
I01
sa(dp1645
g8
(lp1646
I1
aI0
asg10
(lp1647
sg12
I230
sg13
g14
sg15
I2
sg16
I1
sg17
(lp1648
sg19
(lp1649
I4
aI8
asg21
F1.5106189250946045
sg22
(lp1650
g1317
ag1298
asg26
I1
sg27
I0
sg28
I0
sg29
F715.26995992660522
sg30
(lp1651
F0.753
aF0.065000000000000002
asg32
g1301
sg34
I01
sa(dp1652
g8
(lp1653
I0
aI0
asg10
(lp1654
sg12
I231
sg13
g14
sg15
I2
sg16
I0
sg17
(lp1655
sg19
(lp1656
I10
aI9
asg21
F1.0061681270599365
sg22
(lp1657
g1369
ag1419
asg26
I1
sg27
I0
sg28
I0
sg29
F718.34041810035706
sg30
(lp1658
F0.38400000000000001
aF0.104
asg32
g1301
sg34
I01
sa(dp1659
g8
(lp1660
I0
aI0
asg10
(lp1661
sg12
I232
sg13
g14
sg15
I2
sg16
I0
sg17
(lp1662
sg19
(lp1663
I10
aI13
asg21
F0.65862607955932617
sg22
(lp1664
g1369
ag1347
asg26
I1
sg27
I1
sg28
I0
sg29
F721.40986704826355
sg30
(lp1665
F0.38400000000000001
aF0.48099999999999998
asg32
g1301
sg34
I00
sa(dp1666
g8
(lp1667
I0
aI1
asg10
(lp1668
sg12
I233
sg13
g14
sg15
I2
sg16
I1
sg17
(lp1669
sg19
(lp1670
I14
aI3
asg21
F0.27699089050292969
sg22
(lp1671
g1316
ag1299
asg26
I1
sg27
I1
sg28
I1
sg29
F724.47992897033691
sg30
(lp1672
F0.57499999999999996
aF0.88900000000000001
asg32
g1301
sg34
I01
sa(dp1673
g8
(lp1674
I1
aI0
asg10
(lp1675
sg12
I234
sg13
g14
sg15
I2
sg16
I1
sg17
(lp1676
sg19
(lp1677
I0
aI9
asg21
F0.68375897407531738
sg22
(lp1678
g1325
ag1419
asg26
I1
sg27
I0
sg28
I0
sg29
F727.54957890510559
sg30
(lp1679
F0.85099999999999998
aF0.104
asg32
g1301
sg34
I01
sa(dp1680
g8
(lp1681
I1
aI0
asg10
(lp1682
sg12
I235
sg13
g14
sg15
I2
sg16
I1
sg17
(lp1683
sg19
(lp1684
I14
aI9
asg21
F0.61742782592773438
sg22
(lp1685
g1316
ag1419
asg26
I1
sg27
I0
sg28
I0
sg29
F730.62012600898743
sg30
(lp1686
F0.57499999999999996
aF0.104
asg32
g1301
sg34
I01
sa(dp1687
g8
(lp1688
I0
aI1
asg10
(lp1689
sg12
I236
sg13
g14
sg15
I2
sg16
I1
sg17
(lp1690
sg19
(lp1691
I14
aI4
asg21
F1.8563010692596436
sg22
(lp1692
g1316
ag1317
asg26
I1
sg27
I1
sg28
I1
sg29
F733.68953990936279
sg30
(lp1693
F0.57499999999999996
aF0.753
asg32
g1301
sg34
I01
sa(dp1694
g8
(lp1695
I1
aI0
asg10
(lp1696
sg12
I237
sg13
g14
sg15
I2
sg16
I1
sg17
(lp1697
sg19
(lp1698
I3
aI14
asg21
F0.76620888710021973
sg22
(lp1699
g1299
ag1316
asg26
I1
sg27
I0
sg28
I0
sg29
F736.75947999954224
sg30
(lp1700
F0.88900000000000001
aF0.57499999999999996
asg32
g1301
sg34
I01
sa(dp1701
g8
(lp1702
I0
aI1
asg10
(lp1703
sg12
I238
sg13
g14
sg15
I2
sg16
I1
sg17
(lp1704
sg19
(lp1705
I5
aI0
asg21
F1.420241117477417
sg22
(lp1706
g1308
ag1325
asg26
I1
sg27
I1
sg28
I1
sg29
F739.83036494255066
sg30
(lp1707
F0.20999999999999999
aF0.85099999999999998
asg32
g1301
sg34
I01
sa(dp1708
g8
(lp1709
I1
aI1
asg10
(lp1710
sg12
I239
sg13
g14
sg15
I2
sg16
I1
sg17
(lp1711
sg19
(lp1712
I3
aI14
asg21
F0.83679389953613281
sg22
(lp1713
g1299
ag1316
asg26
I1
sg27
I0
sg28
I0
sg29
F742.89991307258606
sg30
(lp1714
F0.88900000000000001
aF0.57499999999999996
asg32
g1301
sg34
I01
sa(dp1715
g8
(lp1716
I0
aI0
asg10
(lp1717
sg12
I240
sg13
g14
sg15
I2
sg16
I0
sg17
(lp1718
sg19
(lp1719
I9
aI8
asg21
F1.1192800998687744
sg22
(lp1720
g1419
ag1298
asg26
I1
sg27
I0
sg28
I1
sg29
F745.97003197669983
sg30
(lp1721
F0.104
aF0.065000000000000002
asg32
g1301
sg34
I00
sa(dp1722
g8
(lp1723
I0
aI1
asg10
(lp1724
sg12
I241
sg13
g14
sg15
I2
sg16
I0
sg17
(lp1725
sg19
(lp1726
I4
aI10
asg21
F1.2441210746765137
sg22
(lp1727
g1317
ag1369
asg26
I1
sg27
I0
sg28
I0
sg29
F749.04007697105408
sg30
(lp1728
F0.753
aF0.38400000000000001
asg32
g1301
sg34
I01
sa(dp1729
g8
(lp1730
I0
aI0
asg10
(lp1731
sg12
I242
sg13
g14
sg15
I2
sg16
I0
sg17
(lp1732
sg19
(lp1733
I8
aI14
asg21
F0.87413382530212402
sg22
(lp1734
g1298
ag1316
asg26
I1
sg27
I1
sg28
I0
sg29
F752.10938596725464
sg30
(lp1735
F0.065000000000000002
aF0.57499999999999996
asg32
g1301
sg34
I00
sa(dp1736
g8
(lp1737
I0
aI0
asg10
(lp1738
sg12
I243
sg13
g14
sg15
I2
sg16
I0
sg17
(lp1739
sg19
(lp1740
I14
aI9
asg21
F0.56032800674438477
sg22
(lp1741
g1316
ag1419
asg26
I1
sg27
I0
sg28
I0
sg29
F755.17978096008301
sg30
(lp1742
F0.57499999999999996
aF0.104
asg32
g1301
sg34
I01
sa(dp1743
g8
(lp1744
I1
aI1
asg10
(lp1745
sg12
I244
sg13
g14
sg15
I2
sg16
I1
sg17
(lp1746
sg19
(lp1747
I0
aI13
asg21
F1.0002260208129883
sg22
(lp1748
g1325
ag1347
asg26
I1
sg27
I0
sg28
I1
sg29
F758.24961996078491
sg30
(lp1749
F0.85099999999999998
aF0.48099999999999998
asg32
g1301
sg34
I00
sa(dp1750
g8
(lp1751
I0
aI1
asg10
(lp1752
sg12
I245
sg13
g14
sg15
I2
sg16
I1
sg17
(lp1753
sg19
(lp1754
I5
aI3
asg21
F1.6993899345397949
sg22
(lp1755
g1308
ag1299
asg26
I1
sg27
I1
sg28
I1
sg29
F761.31957197189331
sg30
(lp1756
F0.20999999999999999
aF0.88900000000000001
asg32
g1301
sg34
I01
sa(dp1757
g8
(lp1758
I0
aI1
asg10
(lp1759
sg12
I246
sg13
g14
sg15
I2
sg16
I1
sg17
(lp1760
sg19
(lp1761
I9
aI10
asg21
F1.2283809185028076
sg22
(lp1762
g1419
ag1369
asg26
I1
sg27
I1
sg28
I1
sg29
F764.38975095748901
sg30
(lp1763
F0.104
aF0.38400000000000001
asg32
g1301
sg34
I01
sa(dp1764
g8
(lp1765
I0
aI0
asg10
(lp1766
sg12
I247
sg13
g14
sg15
I2
sg16
I0
sg17
(lp1767
sg19
(lp1768
I13
aI8
asg21
F0.73438501358032227
sg22
(lp1769
g1347
ag1298
asg26
I1
sg27
I0
sg28
I0
sg29
F767.45934700965881
sg30
(lp1770
F0.48099999999999998
aF0.065000000000000002
asg32
g1301
sg34
I01
sa(dp1771
g8
(lp1772
I0
aI1
asg10
(lp1773
sg12
I248
sg13
g14
sg15
I2
sg16
I1
sg17
(lp1774
sg19
(lp1775
I9
aI3
asg21
F0.78066706657409668
sg22
(lp1776
g1419
ag1299
asg26
I1
sg27
I1
sg28
I1
sg29
F770.52920198440552
sg30
(lp1777
F0.104
aF0.88900000000000001
asg32
g1301
sg34
I01
sa(dp1778
g8
(lp1779
I1
aI0
asg10
(lp1780
sg12
I249
sg13
g14
sg15
I2
sg16
I1
sg17
(lp1781
sg19
(lp1782
I0
aI8
asg21
F1.0858190059661865
sg22
(lp1783
g1325
ag1298
asg26
I1
sg27
I0
sg28
I0
sg29
F773.59942007064819
sg30
(lp1784
F0.85099999999999998
aF0.065000000000000002
asg32
g1301
sg34
I01
sa(dp1785
g8
(lp1786
I0
aI0
asg10
(lp1787
sg12
I250
sg13
g14
sg15
I2
sg16
I0
sg17
(lp1788
sg19
(lp1789
I8
aI5
asg21
F1.7061140537261963
sg22
(lp1790
g1298
ag1308
asg26
I1
sg27
I1
sg28
I1
sg29
F776.66940093040466
sg30
(lp1791
F0.065000000000000002
aF0.20999999999999999
asg32
g1301
sg34
I01
sa(dp1792
g8
(lp1793
I0
aI0
asg10
(lp1794
sg12
I251
sg13
g14
sg15
I2
sg16
I0
sg17
(lp1795
sg19
(lp1796
I5
aI14
asg21
F1.0999090671539307
sg22
(lp1797
g1308
ag1316
asg26
I1
sg27
I1
sg28
I0
sg29
F779.7391951084137
sg30
(lp1798
F0.20999999999999999
aF0.57499999999999996
asg32
g1301
sg34
I00
sa(dp1799
g8
(lp1800
I0
aI1
asg10
(lp1801
sg12
I252
sg13
g14
sg15
I2
sg16
I0
sg17
(lp1802
sg19
(lp1803
I9
aI10
asg21
F1.4832301139831543
sg22
(lp1804
g1419
ag1369
asg26
I1
sg27
I1
sg28
I0
sg29
F782.80919289588928
sg30
(lp1805
F0.104
aF0.38400000000000001
asg32
g1301
sg34
I00
sa(dp1806
g8
(lp1807
I0
aI0
asg10
(lp1808
sg12
I253
sg13
g14
sg15
I2
sg16
Fnan
sg17
(lp1809
sg19
(lp1810
I0
aI8
asg21
Fnan
sg22
(lp1811
g1325
ag1298
asg26
I1
sg27
I0
sg28
Fnan
sg29
F785.87931704521179
sg30
(lp1812
F0.85099999999999998
aF0.065000000000000002
asg32
g1301
sa(dp1813
g8
(lp1814
I0
aI0
asg10
(lp1815
sg12
I254
sg13
g14
sg15
I2
sg16
I0
sg17
(lp1816
sg19
(lp1817
I14
aI4
asg21
F0.8278200626373291
sg22
(lp1818
g1316
ag1317
asg26
I1
sg27
I1
sg28
I1
sg29
F788.96666097640991
sg30
(lp1819
F0.57499999999999996
aF0.753
asg32
g1301
sg34
I01
sa(dp1820
g8
(lp1821
I0
aI0
asg10
(lp1822
sg12
I255
sg13
g14
sg15
I2
sg16
I0
sg17
(lp1823
sg19
(lp1824
I10
aI8
asg21
F0.96453404426574707
sg22
(lp1825
g1369
ag1298
asg26
I1
sg27
I0
sg28
I1
sg29
F792.03571891784668
sg30
(lp1826
F0.38400000000000001
aF0.065000000000000002
asg32
g1301
sg34
I00
sa(dp1827
g8
(lp1828
I0
aI1
asg10
(lp1829
sg12
I256
sg13
g14
sg15
I2
sg16
I1
sg17
(lp1830
sg19
(lp1831
I8
aI3
asg21
F0.89833688735961914
sg22
(lp1832
g1298
ag1299
asg26
I1
sg27
I1
sg28
I1
sg29
F795.10627198219299
sg30
(lp1833
F0.065000000000000002
aF0.88900000000000001
asg32
g1301
sg34
I01
sa(dp1834
g8
(lp1835
I0
aI1
asg10
(lp1836
sg12
I257
sg13
g14
sg15
I2
sg16
I1
sg17
(lp1837
sg19
(lp1838
I8
aI4
asg21
F0.75323796272277832
sg22
(lp1839
g1298
ag1317
asg26
I1
sg27
I1
sg28
I1
sg29
F798.1763219833374
sg30
(lp1840
F0.065000000000000002
aF0.753
asg32
g1301
sg34
I01
sa(dp1841
g8
(lp1842
I0
aI1
asg10
(lp1843
sg12
I258
sg13
g14
sg15
I2
sg16
I0
sg17
(lp1844
sg19
(lp1845
I13
aI14
asg21
F0.76579713821411133
sg22
(lp1846
g1347
ag1316
asg26
I1
sg27
I1
sg28
I0
sg29
F801.245609998703
sg30
(lp1847
F0.48099999999999998
aF0.57499999999999996
asg32
g1301
sg34
I00
sa(dp1848
g8
(lp1849
I1
aI1
asg10
(lp1850
sg12
I259
sg13
g14
sg15
I2
sg16
I1
sg17
(lp1851
sg19
(lp1852
I0
aI4
asg21
F1.2729108333587646
sg22
(lp1853
g1325
ag1317
asg26
I1
sg27
I0
sg28
I0
sg29
F804.31575608253479
sg30
(lp1854
F0.85099999999999998
aF0.753
asg32
g1301
sg34
I01
sa(dp1855
g8
(lp1856
I1
aI0
asg10
(lp1857
sg12
I260
sg13
g14
sg15
I2
sg16
I1
sg17
(lp1858
sg19
(lp1859
I3
aI13
asg21
F1.0951089859008789
sg22
(lp1860
g1299
ag1347
asg26
I1
sg27
I0
sg28
I0
sg29
F807.38581395149231
sg30
(lp1861
F0.88900000000000001
aF0.48099999999999998
asg32
g1301
sg34
I01
sa(dp1862
g8
(lp1863
I1
aI0
asg10
(lp1864
sg12
I261
sg13
g14
sg15
I2
sg16
I1
sg17
(lp1865
sg19
(lp1866
I14
aI5
asg21
F1.2984640598297119
sg22
(lp1867
g1316
ag1308
asg26
I1
sg27
I0
sg28
I0
sg29
F810.45576190948486
sg30
(lp1868
F0.57499999999999996
aF0.20999999999999999
asg32
g1301
sg34
I01
sa(dp1869
g8
(lp1870
I0
aI1
asg10
(lp1871
sg12
I262
sg13
g14
sg15
I2
sg16
I0
sg17
(lp1872
sg19
(lp1873
I4
aI3
asg21
F1.0636279582977295
sg22
(lp1874
g1317
ag1299
asg26
I1
sg27
I1
sg28
I0
sg29
F813.52571702003479
sg30
(lp1875
F0.753
aF0.88900000000000001
asg32
g1301
sg34
I00
sa(dp1876
g8
(lp1877
I1
aI1
asg10
(lp1878
sg12
I263
sg13
g14
sg15
I2
sg16
I1
sg17
(lp1879
sg19
(lp1880
I4
aI0
asg21
F1.4248850345611572
sg22
(lp1881
g1317
ag1325
asg26
I1
sg27
I1
sg28
I1
sg29
F816.59561800956726
sg30
(lp1882
F0.753
aF0.85099999999999998
asg32
g1301
sg34
I01
sa(dp1883
g8
(lp1884
I1
aI0
asg10
(lp1885
sg12
I264
sg13
g14
sg15
I2
sg16
I1
sg17
(lp1886
sg19
(lp1887
I4
aI8
asg21
F1.0212240219116211
sg22
(lp1888
g1317
ag1298
asg26
I1
sg27
I0
sg28
I0
sg29
F819.66553211212158
sg30
(lp1889
F0.753
aF0.065000000000000002
asg32
g1301
sg34
I01
sa(dp1890
g8
(lp1891
I1
aI0
asg10
(lp1892
sg12
I265
sg13
g14
sg15
I2
sg16
I0
sg17
(lp1893
sg19
(lp1894
I4
aI0
asg21
F0.78627490997314453
sg22
(lp1895
g1317
ag1325
asg26
I1
sg27
I1
sg28
I1
sg29
F822.73571395874023
sg30
(lp1896
F0.753
aF0.85099999999999998
asg32
g1301
sg34
I01
sa(dp1897
g8
(lp1898
I1
aI0
asg10
(lp1899
sg12
I266
sg13
g14
sg15
I2
sg16
I0
sg17
(lp1900
sg19
(lp1901
I0
aI13
asg21
F0.77644991874694824
sg22
(lp1902
g1325
ag1347
asg26
I1
sg27
I0
sg28
I1
sg29
F825.80544209480286
sg30
(lp1903
F0.85099999999999998
aF0.48099999999999998
asg32
g1301
sg34
I00
sa(dp1904
g8
(lp1905
I0
aI1
asg10
(lp1906
sg12
I267
sg13
g14
sg15
I2
sg16
I1
sg17
(lp1907
sg19
(lp1908
I5
aI0
asg21
F0.63160181045532227
sg22
(lp1909
g1308
ag1325
asg26
I1
sg27
I1
sg28
I1
sg29
F828.87641310691833
sg30
(lp1910
F0.20999999999999999
aF0.85099999999999998
asg32
g1301
sg34
I01
sa(dp1911
g8
(lp1912
I1
aI0
asg10
(lp1913
sg12
I268
sg13
g14
sg15
I2
sg16
I1
sg17
(lp1914
sg19
(lp1915
I13
aI9
asg21
F1.0036311149597168
sg22
(lp1916
g1347
ag1419
asg26
I1
sg27
I0
sg28
I0
sg29
F831.94550490379333
sg30
(lp1917
F0.48099999999999998
aF0.104
asg32
g1301
sg34
I01
sa(dp1918
g8
(lp1919
I0
aI1
asg10
(lp1920
sg12
I269
sg13
g14
sg15
I2
sg16
I1
sg17
(lp1921
sg19
(lp1922
I5
aI3
asg21
F1.0278909206390381
sg22
(lp1923
g1308
ag1299
asg26
I1
sg27
I1
sg28
I1
sg29
F835.01562190055847
sg30
(lp1924
F0.20999999999999999
aF0.88900000000000001
asg32
g1301
sg34
I01
sa(dp1925
g8
(lp1926
I0
aI0
asg10
(lp1927
sg12
I270
sg13
g14
sg15
I2
sg16
I0
sg17
(lp1928
sg19
(lp1929
I14
aI13
asg21
F1.0178020000457764
sg22
(lp1930
g1316
ag1347
asg26
I1
sg27
I0
sg28
I1
sg29
F838.08535099029541
sg30
(lp1931
F0.57499999999999996
aF0.48099999999999998
asg32
g1301
sg34
I00
sa(dp1932
g8
(lp1933
I0
aI1
asg10
(lp1934
sg12
I271
sg13
g14
sg15
I2
sg16
I1
sg17
(lp1935
sg19
(lp1936
I9
aI13
asg21
F0.95157694816589355
sg22
(lp1937
g1419
ag1347
asg26
I1
sg27
I1
sg28
I1
sg29
F841.15529108047485
sg30
(lp1938
F0.104
aF0.48099999999999998
asg32
g1301
sg34
I01
sa(dp1939
g8
(lp1940
I1
aI1
asg10
(lp1941
sg12
I272
sg13
g14
sg15
I2
sg16
I1
sg17
(lp1942
sg19
(lp1943
I3
aI14
asg21
F0.9641420841217041
sg22
(lp1944
g1299
ag1316
asg26
I1
sg27
I0
sg28
I1
sg29
F844.22529697418213
sg30
(lp1945
F0.88900000000000001
aF0.57499999999999996
asg32
g1301
sg34
I00
sa(dp1946
g8
(lp1947
I1
aI1
asg10
(lp1948
sg12
I273
sg13
g14
sg15
I2
sg16
I1
sg17
(lp1949
sg19
(lp1950
I10
aI0
asg21
F0.96573805809020996
sg22
(lp1951
g1369
ag1325
asg26
I1
sg27
I1
sg28
I1
sg29
F847.29562091827393
sg30
(lp1952
F0.38400000000000001
aF0.85099999999999998
asg32
g1301
sg34
I01
sa(dp1953
g8
(lp1954
I0
aI0
asg10
(lp1955
sg12
I274
sg13
g14
sg15
I2
sg16
I0
sg17
(lp1956
sg19
(lp1957
I13
aI4
asg21
F0.82045316696166992
sg22
(lp1958
g1347
ag1317
asg26
I1
sg27
I1
sg28
I1
sg29
F850.36508798599243
sg30
(lp1959
F0.48099999999999998
aF0.753
asg32
g1301
sg34
I01
sa(dp1960
g8
(lp1961
I0
aI0
asg10
(lp1962
sg12
I275
sg13
g14
sg15
I2
sg16
I0
sg17
(lp1963
sg19
(lp1964
I0
aI10
asg21
F1.2158458232879639
sg22
(lp1965
g1325
ag1369
asg26
I1
sg27
I0
sg28
I0
sg29
F853.43527412414551
sg30
(lp1966
F0.85099999999999998
aF0.38400000000000001
asg32
g1301
sg34
I01
sa(dp1967
g8
(lp1968
I0
aI0
asg10
(lp1969
sg12
I276
sg13
g14
sg15
I2
sg16
I0
sg17
(lp1970
sg19
(lp1971
I4
aI10
asg21
F0.84541511535644531
sg22
(lp1972
g1317
ag1369
asg26
I1
sg27
I0
sg28
I0
sg29
F856.50521898269653
sg30
(lp1973
F0.753
aF0.38400000000000001
asg32
g1301
sg34
I01
sa(dp1974
g8
(lp1975
I1
aI1
asg10
(lp1976
sg12
I277
sg13
g14
sg15
I2
sg16
I1
sg17
(lp1977
sg19
(lp1978
I0
aI13
asg21
F0.79094290733337402
sg22
(lp1979
g1325
ag1347
asg26
I1
sg27
I0
sg28
I1
sg29
F859.57613301277161
sg30
(lp1980
F0.85099999999999998
aF0.48099999999999998
asg32
g1301
sg34
I00
sa(dp1981
g8
(lp1982
I1
aI0
asg10
(lp1983
sg12
I278
sg13
g14
sg15
I2
sg16
I0
sg17
(lp1984
sg19
(lp1985
I14
aI13
asg21
F0.67954611778259277
sg22
(lp1986
g1316
ag1347
asg26
I1
sg27
I0
sg28
I1
sg29
F862.64508700370789
sg30
(lp1987
F0.57499999999999996
aF0.48099999999999998
asg32
g1301
sg34
I00
sa(dp1988
g8
(lp1989
I1
aI0
asg10
(lp1990
sg12
I279
sg13
g14
sg15
I2
sg16
I0
sg17
(lp1991
sg19
(lp1992
I0
aI4
asg21
F1.0969679355621338
sg22
(lp1993
g1325
ag1317
asg26
I1
sg27
I0
sg28
I1
sg29
F865.71534895896912
sg30
(lp1994
F0.85099999999999998
aF0.753
asg32
g1301
sg34
I00
sa(dp1995
g8
(lp1996
I0
aI1
asg10
(lp1997
sg12
I280
sg13
g14
sg15
I2
sg16
I1
sg17
(lp1998
sg19
(lp1999
I8
aI14
asg21
F0.7943120002746582
sg22
(lp2000
g1298
ag1316
asg26
I1
sg27
I1
sg28
I1
sg29
F868.7855269908905
sg30
(lp2001
F0.065000000000000002
aF0.57499999999999996
asg32
g1301
sg34
I01
sa(dp2002
g8
(lp2003
I0
aI1
asg10
(lp2004
sg12
I281
sg13
g14
sg15
I2
sg16
I1
sg17
(lp2005
sg19
(lp2006
I9
aI4
asg21
F1.3581008911132812
sg22
(lp2007
g1419
ag1317
asg26
I1
sg27
I1
sg28
I1
sg29
F871.85499000549316
sg30
(lp2008
F0.104
aF0.753
asg32
g1301
sg34
I01
sa(dp2009
g8
(lp2010
I1
aI1
asg10
(lp2011
sg12
I282
sg13
g14
sg15
I2
sg16
I1
sg17
(lp2012
sg19
(lp2013
I3
aI9
asg21
F1.1571872234344482
sg22
(lp2014
g1299
ag1419
asg26
I1
sg27
I0
sg28
I0
sg29
F874.92509198188782
sg30
(lp2015
F0.88900000000000001
aF0.104
asg32
g1301
sg34
I01
sa(dp2016
g8
(lp2017
I0
aI0
asg10
(lp2018
sg12
I283
sg13
g14
sg15
I2
sg16
I0
sg17
(lp2019
sg19
(lp2020
I9
aI14
asg21
F0.94488406181335449
sg22
(lp2021
g1419
ag1316
asg26
I1
sg27
I1
sg28
I1
sg29
F877.99509501457214
sg30
(lp2022
F0.104
aF0.57499999999999996
asg32
g1301
sg34
I01
sa(dp2023
g8
(lp2024
I0
aI0
asg10
(lp2025
sg12
I284
sg13
g14
sg15
I2
sg16
I0
sg17
(lp2026
sg19
(lp2027
I3
aI9
asg21
F0.57474303245544434
sg22
(lp2028
g1299
ag1419
asg26
I1
sg27
I0
sg28
I0
sg29
F881.06493711471558
sg30
(lp2029
F0.88900000000000001
aF0.104
asg32
g1301
sg34
I01
sa(dp2030
g8
(lp2031
I1
aI0
asg10
(lp2032
sg12
I285
sg13
g14
sg15
I2
sg16
I1
sg17
(lp2033
sg19
(lp2034
I4
aI9
asg21
F0.69990301132202148
sg22
(lp2035
g1317
ag1419
asg26
I1
sg27
I0
sg28
I0
sg29
F884.13532900810242
sg30
(lp2036
F0.753
aF0.104
asg32
g1301
sg34
I01
sa(dp2037
g8
(lp2038
I1
aI0
asg10
(lp2039
sg12
I286
sg13
g14
sg15
I2
sg16
I1
sg17
(lp2040
sg19
(lp2041
I3
aI8
asg21
F0.80242395401000977
sg22
(lp2042
g1299
ag1298
asg26
I1
sg27
I0
sg28
I0
sg29
F887.20494198799133
sg30
(lp2043
F0.88900000000000001
aF0.065000000000000002
asg32
g1301
sg34
I01
sa(dp2044
g8
(lp2045
I0
aI0
asg10
(lp2046
sg12
I287
sg13
g14
sg15
I2
sg16
I0
sg17
(lp2047
sg19
(lp2048
I13
aI10
asg21
F1.1860959529876709
sg22
(lp2049
g1347
ag1369
asg26
I1
sg27
I0
sg28
I1
sg29
F890.27495002746582
sg30
(lp2050
F0.48099999999999998
aF0.38400000000000001
asg32
g1301
sg34
I00
sa(dp2051
g8
(lp2052
I0
aI1
asg10
(lp2053
sg12
I288
sg13
g14
sg15
I2
sg16
I1
sg17
(lp2054
sg19
(lp2055
I14
aI5
asg21
F0.6476750373840332
sg22
(lp2056
g1316
ag1308
asg26
I1
sg27
I0
sg28
I1
sg29
F893.34498405456543
sg30
(lp2057
F0.57499999999999996
aF0.20999999999999999
asg32
g1301
sg34
I00
sa(dp2058
g8
(lp2059
I0
aI0
asg10
(lp2060
sg12
I289
sg13
g14
sg15
I2
sg16
I0
sg17
(lp2061
sg19
(lp2062
I10
aI14
asg21
F0.8736720085144043
sg22
(lp2063
g1369
ag1316
asg26
I1
sg27
I1
sg28
I0
sg29
F896.41515207290649
sg30
(lp2064
F0.38400000000000001
aF0.57499999999999996
asg32
g1301
sg34
I00
sa(dp2065
g8
(lp2066
I0
aI0
asg10
(lp2067
sg12
I290
sg13
g14
sg15
I2
sg16
I0
sg17
(lp2068
sg19
(lp2069
I9
aI10
asg21
F0.80725693702697754
sg22
(lp2070
g1419
ag1369
asg26
I1
sg27
I1
sg28
I1
sg29
F899.48529410362244
sg30
(lp2071
F0.104
aF0.38400000000000001
asg32
g1301
sg34
I01
sa(dp2072
g8
(lp2073
I1
aI1
asg10
(lp2074
sg12
I291
sg13
g14
sg15
I2
sg16
I1
sg17
(lp2075
sg19
(lp2076
I4
aI13
asg21
F0.93252420425415039
sg22
(lp2077
g1317
ag1347
asg26
I1
sg27
I0
sg28
I1
sg29
F902.55497598648071
sg30
(lp2078
F0.753
aF0.48099999999999998
asg32
g1301
sg34
I00
sa(dp2079
g8
(lp2080
I0
aI0
asg10
(lp2081
sg12
I292
sg13
g14
sg15
I2
sg16
I0
sg17
(lp2082
sg19
(lp2083
I14
aI8
asg21
F1.3278820514678955
sg22
(lp2084
g1316
ag1298
asg26
I1
sg27
I0
sg28
I1
sg29
F905.62469005584717
sg30
(lp2085
F0.57499999999999996
aF0.065000000000000002
asg32
g1301
sg34
I00
sa(dp2086
g8
(lp2087
I0
aI1
asg10
(lp2088
sg12
I293
sg13
g14
sg15
I2
sg16
I1
sg17
(lp2089
sg19
(lp2090
I13
aI4
asg21
F0.78865504264831543
sg22
(lp2091
g1347
ag1317
asg26
I1
sg27
I1
sg28
I1
sg29
F908.69502305984497
sg30
(lp2092
F0.48099999999999998
aF0.753
asg32
g1301
sg34
I01
sa(dp2093
g8
(lp2094
I1
aI1
asg10
(lp2095
sg12
I294
sg13
g14
sg15
I2
sg16
I1
sg17
(lp2096
sg19
(lp2097
I4
aI0
asg21
F0.84642601013183594
sg22
(lp2098
g1317
ag1325
asg26
I1
sg27
I1
sg28
I1
sg29
F911.76511907577515
sg30
(lp2099
F0.753
aF0.85099999999999998
asg32
g1301
sg34
I01
sa(dp2100
g8
(lp2101
I1
aI1
asg10
(lp2102
sg12
I295
sg13
g14
sg15
I2
sg16
I1
sg17
(lp2103
sg19
(lp2104
I4
aI14
asg21
F0.74634504318237305
sg22
(lp2105
g1317
ag1316
asg26
I1
sg27
I0
sg28
I0
sg29
F914.83482789993286
sg30
(lp2106
F0.753
aF0.57499999999999996
asg32
g1301
sg34
I01
sa(dp2107
g8
(lp2108
I1
aI0
asg10
(lp2109
sg12
I296
sg13
g14
sg15
I2
sg16
I1
sg17
(lp2110
sg19
(lp2111
I0
aI5
asg21
F0.69136500358581543
sg22
(lp2112
g1325
ag1308
asg26
I1
sg27
I0
sg28
I0
sg29
F917.904629945755
sg30
(lp2113
F0.85099999999999998
aF0.20999999999999999
asg32
g1301
sg34
I01
sa(dp2114
g8
(lp2115
I1
aI1
asg10
(lp2116
sg12
I297
sg13
g14
sg15
I2
sg16
I1
sg17
(lp2117
sg19
(lp2118
I13
aI3
asg21
F1.750791072845459
sg22
(lp2119
g1347
ag1299
asg26
I1
sg27
I1
sg28
I1
sg29
F920.97553706169128
sg30
(lp2120
F0.48099999999999998
aF0.88900000000000001
asg32
g1301
sg34
I01
sa(dp2121
g8
(lp2122
I0
aI0
asg10
(lp2123
sg12
I298
sg13
g14
sg15
I2
sg16
I0
sg17
(lp2124
sg19
(lp2125
I13
aI9
asg21
F0.86264777183532715
sg22
(lp2126
g1347
ag1419
asg26
I1
sg27
I0
sg28
I0
sg29
F924.04467105865479
sg30
(lp2127
F0.48099999999999998
aF0.104
asg32
g1301
sg34
I01
sa(dp2128
g8
(lp2129
I0
aI0
asg10
(lp2130
sg12
I299
sg13
g14
sg15
I2
sg16
I0
sg17
(lp2131
sg19
(lp2132
I13
aI8
asg21
F1.111814022064209
sg22
(lp2133
g1347
ag1298
asg26
I1
sg27
I0
sg28
I1
sg29
F927.11481094360352
sg30
(lp2134
F0.48099999999999998
aF0.065000000000000002
asg32
g1301
sg34
I00
sa(dp2135
g8
(lp2136
I1
aI0
asg10
(lp2137
sg12
I300
sg13
g14
sg15
I2
sg16
I1
sg17
(lp2138
sg19
(lp2139
I4
aI8
asg21
F1.7432930469512939
sg22
(lp2140
g1317
ag1298
asg26
I1
sg27
I0
sg28
I0
sg29
F930.18470907211304
sg30
(lp2141
F0.753
aF0.065000000000000002
asg32
g1301
sg34
I01
sa(dp2142
g8
(lp2143
I0
aI0
asg10
(lp2144
sg12
I301
sg13
g14
sg15
I2
sg16
I0
sg17
(lp2145
sg19
(lp2146
I9
aI13
asg21
F1.575761079788208
sg22
(lp2147
g1419
ag1347
asg26
I1
sg27
I1
sg28
I0
sg29
F933.25504994392395
sg30
(lp2148
F0.104
aF0.48099999999999998
asg32
g1301
sg34
I00
sa(dp2149
g8
(lp2150
I1
aI1
asg10
(lp2151
sg12
I302
sg13
g14
sg15
I2
sg16
I1
sg17
(lp2152
sg19
(lp2153
I0
aI3
asg21
F1.2956390380859375
sg22
(lp2154
g1325
ag1299
asg26
I1
sg27
I1
sg28
I0
sg29
F936.32460904121399
sg30
(lp2155
F0.85099999999999998
aF0.88900000000000001
asg32
g1301
sg34
I00
sa(dp2156
g8
(lp2157
I0
aI1
asg10
(lp2158
sg12
I303
sg13
g14
sg15
I2
sg16
I1
sg17
(lp2159
sg19
(lp2160
I13
aI3
asg21
F1.7470149993896484
sg22
(lp2161
g1347
ag1299
asg26
I1
sg27
I1
sg28
I1
sg29
F939.39470100402832
sg30
(lp2162
F0.48099999999999998
aF0.88900000000000001
asg32
g1301
sg34
I01
sa(dp2163
g8
(lp2164
I0
aI1
asg10
(lp2165
sg12
I304
sg13
g14
sg15
I2
sg16
I1
sg17
(lp2166
sg19
(lp2167
I5
aI10
asg21
F0.73597884178161621
sg22
(lp2168
g1308
ag1369
asg26
I1
sg27
I1
sg28
I1
sg29
F942.46453189849854
sg30
(lp2169
F0.20999999999999999
aF0.38400000000000001
asg32
g1301
sg34
I01
sa(dp2170
g8
(lp2171
I1
aI1
asg10
(lp2172
sg12
I305
sg13
g14
sg15
I2
sg16
I1
sg17
(lp2173
sg19
(lp2174
I3
aI14
asg21
F0.53395295143127441
sg22
(lp2175
g1299
ag1316
asg26
I1
sg27
I0
sg28
I1
sg29
F945.53494095802307
sg30
(lp2176
F0.88900000000000001
aF0.57499999999999996
asg32
g1301
sg34
I00
sa(dp2177
g8
(lp2178
I0
aI1
asg10
(lp2179
sg12
I306
sg13
g14
sg15
I2
sg16
I1
sg17
(lp2180
sg19
(lp2181
I8
aI14
asg21
F0.32253408432006836
sg22
(lp2182
g1298
ag1316
asg26
I1
sg27
I1
sg28
I1
sg29
F948.60554599761963
sg30
(lp2183
F0.065000000000000002
aF0.57499999999999996
asg32
g1301
sg34
I01
sa(dp2184
g8
(lp2185
I0
aI0
asg10
(lp2186
sg12
I307
sg13
g14
sg15
I2
sg16
I0
sg17
(lp2187
sg19
(lp2188
I13
aI5
asg21
F0.71693801879882812
sg22
(lp2189
g1347
ag1308
asg26
I1
sg27
I0
sg28
I0
sg29
F951.67425203323364
sg30
(lp2190
F0.48099999999999998
aF0.20999999999999999
asg32
g1301
sg34
I01
sa(dp2191
g8
(lp2192
I1
aI0
asg10
(lp2193
sg12
I308
sg13
g14
sg15
I2
sg16
I1
sg17
(lp2194
sg19
(lp2195
I0
aI14
asg21
F0.80852699279785156
sg22
(lp2196
g1325
ag1316
asg26
I1
sg27
I0
sg28
I0
sg29
F954.74444103240967
sg30
(lp2197
F0.85099999999999998
aF0.57499999999999996
asg32
g1301
sg34
I01
sa(dp2198
g8
(lp2199
I1
aI0
asg10
(lp2200
sg12
I309
sg13
g14
sg15
I2
sg16
I0
sg17
(lp2201
sg19
(lp2202
I3
aI0
asg21
F1.169874906539917
sg22
(lp2203
g1299
ag1325
asg26
I1
sg27
I0
sg28
I1
sg29
F957.81450009346008
sg30
(lp2204
F0.88900000000000001
aF0.85099999999999998
asg32
g1301
sg34
I00
sa(dp2205
g8
(lp2206
I0
aI1
asg10
(lp2207
sg12
I310
sg13
g14
sg15
I2
sg16
I0
sg17
(lp2208
sg19
(lp2209
I10
aI13
asg21
F1.3852198123931885
sg22
(lp2210
g1369
ag1347
asg26
I1
sg27
I1
sg28
I0
sg29
F960.88425302505493
sg30
(lp2211
F0.38400000000000001
aF0.48099999999999998
asg32
g1301
sg34
I00
sa(dp2212
g8
(lp2213
I0
aI0
asg10
(lp2214
sg12
I311
sg13
g14
sg15
I2
sg16
I0
sg17
(lp2215
sg19
(lp2216
I14
aI8
asg21
F1.1613540649414062
sg22
(lp2217
g1316
ag1298
asg26
I1
sg27
I0
sg28
I0
sg29
F963.95409297943115
sg30
(lp2218
F0.57499999999999996
aF0.065000000000000002
asg32
g1301
sg34
I01
sa(dp2219
g8
(lp2220
I1
aI0
asg10
(lp2221
sg12
I312
sg13
g14
sg15
I2
sg16
I1
sg17
(lp2222
sg19
(lp2223
I4
aI9
asg21
F1.1850929260253906
sg22
(lp2224
g1317
ag1419
asg26
I1
sg27
I0
sg28
I0
sg29
F967.0244300365448
sg30
(lp2225
F0.753
aF0.104
asg32
g1301
sg34
I01
sa(dp2226
g8
(lp2227
I1
aI0
asg10
(lp2228
sg12
I313
sg13
g14
sg15
I2
sg16
I1
sg17
(lp2229
sg19
(lp2230
I9
aI10
asg21
F1.1188421249389648
sg22
(lp2231
g1419
ag1369
asg26
I1
sg27
I1
sg28
I0
sg29
F970.0946569442749
sg30
(lp2232
F0.104
aF0.38400000000000001
asg32
g1301
sg34
I00
sa(dp2233
g8
(lp2234
I1
aI1
asg10
(lp2235
sg12
I314
sg13
g14
sg15
I2
sg16
I1
sg17
(lp2236
sg19
(lp2237
I3
aI8
asg21
F1.3230810165405273
sg22
(lp2238
g1299
ag1298
asg26
I1
sg27
I0
sg28
I0
sg29
F973.16427493095398
sg30
(lp2239
F0.88900000000000001
aF0.065000000000000002
asg32
g1301
sg34
I01
sa(dp2240
g8
(lp2241
I1
aI0
asg10
(lp2242
sg12
I315
sg13
g14
sg15
I2
sg16
I1
sg17
(lp2243
sg19
(lp2244
I0
aI13
asg21
F1.0314431190490723
sg22
(lp2245
g1325
ag1347
asg26
I1
sg27
I0
sg28
I0
sg29
F976.23425912857056
sg30
(lp2246
F0.85099999999999998
aF0.48099999999999998
asg32
g1301
sg34
I01
sa(dp2247
g8
(lp2248
I0
aI0
asg10
(lp2249
sg12
I316
sg13
g14
sg15
I2
sg16
I0
sg17
(lp2250
sg19
(lp2251
I9
aI4
asg21
F1.662865161895752
sg22
(lp2252
g1419
ag1317
asg26
I1
sg27
I1
sg28
I0
sg29
F979.30517196655273
sg30
(lp2253
F0.104
aF0.753
asg32
g1301
sg34
I00
sa(dp2254
g8
(lp2255
I0
aI1
asg10
(lp2256
sg12
I317
sg13
g14
sg15
I2
sg16
I1
sg17
(lp2257
sg19
(lp2258
I8
aI0
asg21
F0.77540493011474609
sg22
(lp2259
g1298
ag1325
asg26
I1
sg27
I1
sg28
I1
sg29
F982.37411212921143
sg30
(lp2260
F0.065000000000000002
aF0.85099999999999998
asg32
g1301
sg34
I01
sa(dp2261
g8
(lp2262
I0
aI1
asg10
(lp2263
sg12
I318
sg13
g14
sg15
I2
sg16
I1
sg17
(lp2264
sg19
(lp2265
I8
aI10
asg21
F0.76546978950500488
sg22
(lp2266
g1298
ag1369
asg26
I1
sg27
I1
sg28
I1
sg29
F985.44422101974487
sg30
(lp2267
F0.065000000000000002
aF0.38400000000000001
asg32
g1301
sg34
I01
sa(dp2268
g8
(lp2269
I1
aI0
asg10
(lp2270
sg12
I319
sg13
g14
sg15
I2
sg16
I1
sg17
(lp2271
sg19
(lp2272
I4
aI8
asg21
F0.84559488296508789
sg22
(lp2273
g1317
ag1298
asg26
I1
sg27
I0
sg28
I0
sg29
F988.51439309120178
sg30
(lp2274
F0.753
aF0.065000000000000002
asg32
g1301
sg34
I01
sa(dp2275
g8
(lp2276
I0
aI1
asg10
(lp2277
sg12
I320
sg13
g14
sg15
I2
sg16
I1
sg17
(lp2278
sg19
(lp2279
I10
aI3
asg21
F0.91443681716918945
sg22
(lp2280
g1369
ag1299
asg26
I1
sg27
I1
sg28
I1
sg29
F991.5842399597168
sg30
(lp2281
F0.38400000000000001
aF0.88900000000000001
asg32
g1301
sg34
I01
sa(dp2282
g8
(lp2283
I1
aI0
asg10
(lp2284
sg12
I321
sg13
g14
sg15
I2
sg16
I0
sg17
(lp2285
sg19
(lp2286
I0
aI10
asg21
F1.0055708885192871
sg22
(lp2287
g1325
ag1369
asg26
I1
sg27
I0
sg28
I1
sg29
F994.65455603599548
sg30
(lp2288
F0.85099999999999998
aF0.38400000000000001
asg32
g1301
sg34
I00
sa(dp2289
g8
(lp2290
I1
aI1
asg10
(lp2291
sg12
I322
sg13
g14
sg15
I2
sg16
I1
sg17
(lp2292
sg19
(lp2293
I10
aI14
asg21
F0.69190812110900879
sg22
(lp2294
g1369
ag1316
asg26
I1
sg27
I1
sg28
I0
sg29
F997.72390294075012
sg30
(lp2295
F0.38400000000000001
aF0.57499999999999996
asg32
g1301
sg34
I00
sa(dp2296
g8
(lp2297
I0
aI1
asg10
(lp2298
sg12
I323
sg13
g14
sg15
I2
sg16
I0
sg17
(lp2299
sg19
(lp2300
I5
aI13
asg21
F0.85081315040588379
sg22
(lp2301
g1308
ag1347
asg26
I1
sg27
I1
sg28
I0
sg29
F1000.794126033783
sg30
(lp2302
F0.20999999999999999
aF0.48099999999999998
asg32
g1301
sg34
I00
sa(dp2303
g8
(lp2304
I1
aI0
asg10
(lp2305
sg12
I324
sg13
g14
sg15
I2
sg16
I1
sg17
(lp2306
sg19
(lp2307
I4
aI9
asg21
F0.87484407424926758
sg22
(lp2308
g1317
ag1419
asg26
I1
sg27
I0
sg28
I0
sg29
F1003.8638870716095
sg30
(lp2309
F0.753
aF0.104
asg32
g1301
sg34
I01
sa(dp2310
g8
(lp2311
I1
aI1
asg10
(lp2312
sg12
I325
sg13
g14
sg15
I2
sg16
I1
sg17
(lp2313
sg19
(lp2314
I4
aI14
asg21
F0.77476811408996582
sg22
(lp2315
g1317
ag1316
asg26
I1
sg27
I0
sg28
I0
sg29
F1006.9342520236969
sg30
(lp2316
F0.753
aF0.57499999999999996
asg32
g1301
sg34
I01
sa(dp2317
g8
(lp2318
I1
aI0
asg10
(lp2319
sg12
I326
sg13
g14
sg15
I2
sg16
I1
sg17
(lp2320
sg19
(lp2321
I13
aI14
asg21
F0.71985292434692383
sg22
(lp2322
g1347
ag1316
asg26
I1
sg27
I1
sg28
I0
sg29
F1010.0048780441284
sg30
(lp2323
F0.48099999999999998
aF0.57499999999999996
asg32
g1301
sg34
I00
sa(dp2324
g8
(lp2325
I1
aI1
asg10
(lp2326
sg12
I327
sg13
g14
sg15
I2
sg16
I1
sg17
(lp2327
sg19
(lp2328
I14
aI13
asg21
F0.49586606025695801
sg22
(lp2329
g1316
ag1347
asg26
I1
sg27
I0
sg28
I1
sg29
F1013.0739281177521
sg30
(lp2330
F0.57499999999999996
aF0.48099999999999998
asg32
g1301
sg34
I00
sa(dp2331
g8
(lp2332
I1
aI0
asg10
(lp2333
sg12
I328
sg13
g14
sg15
I2
sg16
I1
sg17
(lp2334
sg19
(lp2335
I13
aI9
asg21
F0.56489992141723633
sg22
(lp2336
g1347
ag1419
asg26
I1
sg27
I0
sg28
I0
sg29
F1016.1437420845032
sg30
(lp2337
F0.48099999999999998
aF0.104
asg32
g1301
sg34
I01
sa(dp2338
g8
(lp2339
I1
aI0
asg10
(lp2340
sg12
I329
sg13
g14
sg15
I2
sg16
I0
sg17
(lp2341
sg19
(lp2342
I13
aI3
asg21
F0.6224968433380127
sg22
(lp2343
g1347
ag1299
asg26
I1
sg27
I1
sg28
I1
sg29
F1019.2137191295624
sg30
(lp2344
F0.48099999999999998
aF0.88900000000000001
asg32
g1301
sg34
I01
sa(dp2345
g8
(lp2346
I1
aI1
asg10
(lp2347
sg12
I330
sg13
g14
sg15
I2
sg16
I1
sg17
(lp2348
sg19
(lp2349
I4
aI0
asg21
F0.74739813804626465
sg22
(lp2350
g1317
ag1325
asg26
I1
sg27
I1
sg28
I1
sg29
F1022.2836880683899
sg30
(lp2351
F0.753
aF0.85099999999999998
asg32
g1301
sg34
I01
sa(dp2352
g8
(lp2353
I0
aI0
asg10
(lp2354
sg12
I331
sg13
g14
sg15
I2
sg16
I0
sg17
(lp2355
sg19
(lp2356
I0
aI10
asg21
F1.2440760135650635
sg22
(lp2357
g1325
ag1369
asg26
I1
sg27
I0
sg28
I0
sg29
F1025.3536880016327
sg30
(lp2358
F0.85099999999999998
aF0.38400000000000001
asg32
g1301
sg34
I01
sa(dp2359
g8
(lp2360
I0
aI1
asg10
(lp2361
sg12
I332
sg13
g14
sg15
I2
sg16
I0
sg17
(lp2362
sg19
(lp2363
I8
aI5
asg21
F1.2566440105438232
sg22
(lp2364
g1298
ag1308
asg26
I1
sg27
I1
sg28
I0
sg29
F1028.4236280918121
sg30
(lp2365
F0.065000000000000002
aF0.20999999999999999
asg32
g1301
sg34
I00
sa(dp2366
g8
(lp2367
I0
aI0
asg10
(lp2368
sg12
I333
sg13
g14
sg15
I2
sg16
I0
sg17
(lp2369
sg19
(lp2370
I5
aI9
asg21
F0.79655694961547852
sg22
(lp2371
g1308
ag1419
asg26
I1
sg27
I0
sg28
I0
sg29
F1031.4937989711761
sg30
(lp2372
F0.20999999999999999
aF0.104
asg32
g1301
sg34
I01
sa(dp2373
g8
(lp2374
I0
aI0
asg10
(lp2375
sg12
I334
sg13
g14
sg15
I2
sg16
I0
sg17
(lp2376
sg19
(lp2377
I5
aI8
asg21
F0.88758015632629395
sg22
(lp2378
g1308
ag1298
asg26
I1
sg27
I0
sg28
I0
sg29
F1034.5636100769043
sg30
(lp2379
F0.20999999999999999
aF0.065000000000000002
asg32
g1301
sg34
I01
sa(dp2380
g8
(lp2381
I1
aI1
asg10
(lp2382
sg12
I335
sg13
g14
sg15
I2
sg16
I1
sg17
(lp2383
sg19
(lp2384
I4
aI5
asg21
F0.72028613090515137
sg22
(lp2385
g1317
ag1308
asg26
I1
sg27
I0
sg28
I1
sg29
F1037.6337280273438
sg30
(lp2386
F0.753
aF0.20999999999999999
asg32
g1301
sg34
I00
sa(dp2387
g8
(lp2388
I1
aI0
asg10
(lp2389
sg12
I336
sg13
g14
sg15
I2
sg16
I1
sg17
(lp2390
sg19
(lp2391
I5
aI4
asg21
F0.53056597709655762
sg22
(lp2392
g1308
ag1317
asg26
I1
sg27
I1
sg28
I0
sg29
F1040.7039411067963
sg30
(lp2393
F0.20999999999999999
aF0.753
asg32
g1301
sg34
I00
sa(dp2394
g8
(lp2395
I0
aI1
asg10
(lp2396
sg12
I337
sg13
g14
sg15
I2
sg16
I1
sg17
(lp2397
sg19
(lp2398
I3
aI0
asg21
F0.8018190860748291
sg22
(lp2399
g1299
ag1325
asg26
I1
sg27
I0
sg28
I1
sg29
F1043.7737979888916
sg30
(lp2400
F0.88900000000000001
aF0.85099999999999998
asg32
g1301
sg34
I00
sa(dp2401
g8
(lp2402
I1
aI1
asg10
(lp2403
sg12
I338
sg13
g14
sg15
I2
sg16
I1
sg17
(lp2404
sg19
(lp2405
I4
aI0
asg21
F0.71871018409729004
sg22
(lp2406
g1317
ag1325
asg26
I1
sg27
I1
sg28
I1
sg29
F1046.8936009407043
sg30
(lp2407
F0.753
aF0.85099999999999998
asg32
g1301
sg34
I01
sa(dp2408
g8
(lp2409
I0
aI1
asg10
(lp2410
sg12
I339
sg13
g14
sg15
I2
sg16
I0
sg17
(lp2411
sg19
(lp2412
I14
aI0
asg21
F0.85564184188842773
sg22
(lp2413
g1316
ag1325
asg26
I1
sg27
I1
sg28
I0
sg29
F1049.9641110897064
sg30
(lp2414
F0.57499999999999996
aF0.85099999999999998
asg32
g1301
sg34
I00
sa(dp2415
g8
(lp2416
I1
aI0
asg10
(lp2417
sg12
I340
sg13
g14
sg15
I2
sg16
I1
sg17
(lp2418
sg19
(lp2419
I10
aI9
asg21
F0.67675304412841797
sg22
(lp2420
g1369
ag1419
asg26
I1
sg27
I0
sg28
I0
sg29
F1053.0338490009308
sg30
(lp2421
F0.38400000000000001
aF0.104
asg32
g1301
sg34
I01
sa(dp2422
g8
(lp2423
I0
aI0
asg10
(lp2424
sg12
I341
sg13
g14
sg15
I2
sg16
I0
sg17
(lp2425
sg19
(lp2426
I8
aI4
asg21
F1.0266098976135254
sg22
(lp2427
g1298
ag1317
asg26
I1
sg27
I1
sg28
I0
sg29
F1056.1036510467529
sg30
(lp2428
F0.065000000000000002
aF0.753
asg32
g1301
sg34
I00
sa(dp2429
g8
(lp2430
I1
aI1
asg10
(lp2431
sg12
I342
sg13
g14
sg15
I2
sg16
I1
sg17
(lp2432
sg19
(lp2433
I10
aI4
asg21
F0.82575297355651855
sg22
(lp2434
g1369
ag1317
asg26
I1
sg27
I1
sg28
I1
sg29
F1059.1735620498657
sg30
(lp2435
F0.38400000000000001
aF0.753
asg32
g1301
sg34
I01
sa(dp2436
g8
(lp2437
I0
aI1
asg10
(lp2438
sg12
I343
sg13
g14
sg15
I2
sg16
I0
sg17
(lp2439
sg19
(lp2440
I3
aI13
asg21
F0.74793887138366699
sg22
(lp2441
g1299
ag1347
asg26
I1
sg27
I0
sg28
I0
sg29
F1062.2434329986572
sg30
(lp2442
F0.88900000000000001
aF0.48099999999999998
asg32
g1301
sg34
I01
sa(dp2443
g8
(lp2444
I1
aI0
asg10
(lp2445
sg12
I344
sg13
g14
sg15
I2
sg16
I0
sg17
(lp2446
sg19
(lp2447
I0
aI5
asg21
F0.80580592155456543
sg22
(lp2448
g1325
ag1308
asg26
I1
sg27
I0
sg28
I1
sg29
F1065.3134329319
sg30
(lp2449
F0.85099999999999998
aF0.20999999999999999
asg32
g1301
sg34
I00
sa(dp2450
g8
(lp2451
I0
aI1
asg10
(lp2452
sg12
I345
sg13
g14
sg15
I2
sg16
I1
sg17
(lp2453
sg19
(lp2454
I9
aI5
asg21
F0.60424613952636719
sg22
(lp2455
g1419
ag1308
asg26
I1
sg27
I1
sg28
I1
sg29
F1068.384269952774
sg30
(lp2456
F0.104
aF0.20999999999999999
asg32
g1301
sg34
I01
sa(dp2457
g8
(lp2458
I0
aI1
asg10
(lp2459
sg12
I346
sg13
g14
sg15
I2
sg16
I0
sg17
(lp2460
sg19
(lp2461
I9
aI4
asg21
F0.53819513320922852
sg22
(lp2462
g1419
ag1317
asg26
I1
sg27
I1
sg28
I0
sg29
F1071.4531209468842
sg30
(lp2463
F0.104
aF0.753
asg32
g1301
sg34
I00
sa(dp2464
g8
(lp2465
I1
aI0
asg10
(lp2466
sg12
I347
sg13
g14
sg15
I2
sg16
I1
sg17
(lp2467
sg19
(lp2468
I10
aI14
asg21
F1.540626049041748
sg22
(lp2469
g1369
ag1316
asg26
I1
sg27
I1
sg28
I0
sg29
F1074.5233640670776
sg30
(lp2470
F0.38400000000000001
aF0.57499999999999996
asg32
g1301
sg34
I00
sa(dp2471
g8
(lp2472
I0
aI0
asg10
(lp2473
sg12
I348
sg13
g14
sg15
I2
sg16
I0
sg17
(lp2474
sg19
(lp2475
I13
aI10
asg21
F0.84494590759277344
sg22
(lp2476
g1347
ag1369
asg26
I1
sg27
I0
sg28
I1
sg29
F1077.5933289527893
sg30
(lp2477
F0.48099999999999998
aF0.38400000000000001
asg32
g1301
sg34
I00
sa(dp2478
g8
(lp2479
I0
aI1
asg10
(lp2480
sg12
I349
sg13
g14
sg15
I2
sg16
I1
sg17
(lp2481
sg19
(lp2482
I14
aI0
asg21
F0.54213619232177734
sg22
(lp2483
g1316
ag1325
asg26
I1
sg27
I1
sg28
I1
sg29
F1080.6632339954376
sg30
(lp2484
F0.57499999999999996
aF0.85099999999999998
asg32
g1301
sg34
I01
sa(dp2485
g8
(lp2486
I0
aI1
asg10
(lp2487
sg12
I350
sg13
g14
sg15
I2
sg16
I1
sg17
(lp2488
sg19
(lp2489
I5
aI4
asg21
F0.52064704895019531
sg22
(lp2490
g1308
ag1317
asg26
I1
sg27
I1
sg28
I1
sg29
F1083.7332119941711
sg30
(lp2491
F0.20999999999999999
aF0.753
asg32
g1301
sg34
I01
sa(dp2492
g8
(lp2493
I1
aI1
asg10
(lp2494
sg12
I351
sg13
g14
sg15
I2
sg16
I1
sg17
(lp2495
sg19
(lp2496
I13
aI3
asg21
F0.42112994194030762
sg22
(lp2497
g1347
ag1299
asg26
I1
sg27
I1
sg28
I1
sg29
F1086.8032269477844
sg30
(lp2498
F0.48099999999999998
aF0.88900000000000001
asg32
g1301
sg34
I01
sa(dp2499
g8
(lp2500
I0
aI1
asg10
(lp2501
sg12
I352
sg13
g14
sg15
I2
sg16
I1
sg17
(lp2502
sg19
(lp2503
I9
aI4
asg21
F0.095405101776123047
sg22
(lp2504
g1419
ag1317
asg26
I1
sg27
I1
sg28
I1
sg29
F1089.8735210895538
sg30
(lp2505
F0.104
aF0.753
asg32
g1301
sg34
I01
sa(dp2506
g8
(lp2507
I0
aI1
asg10
(lp2508
sg12
I353
sg13
g14
sg15
I2
sg16
I0
sg17
(lp2509
sg19
(lp2510
I10
aI13
asg21
F0.50249910354614258
sg22
(lp2511
g1369
ag1347
asg26
I1
sg27
I1
sg28
I0
sg29
F1092.9432439804077
sg30
(lp2512
F0.38400000000000001
aF0.48099999999999998
asg32
g1301
sg34
I00
sa(dp2513
g8
(lp2514
I1
aI1
asg10
(lp2515
sg12
I354
sg13
g14
sg15
I2
sg16
I1
sg17
(lp2516
sg19
(lp2517
I3
aI10
asg21
F0.3571169376373291
sg22
(lp2518
g1299
ag1369
asg26
I1
sg27
I0
sg28
I0
sg29
F1096.0133829116821
sg30
(lp2519
F0.88900000000000001
aF0.38400000000000001
asg32
g1301
sg34
I01
sa(dp2520
g8
(lp2521
I1
aI1
asg10
(lp2522
sg12
I355
sg13
g14
sg15
I2
sg16
I1
sg17
(lp2523
sg19
(lp2524
I3
aI4
asg21
F0.34695887565612793
sg22
(lp2525
g1299
ag1317
asg26
I1
sg27
I0
sg28
I1
sg29
F1099.0834469795227
sg30
(lp2526
F0.88900000000000001
aF0.753
asg32
g1301
sg34
I00
sa(dp2527
g8
(lp2528
I1
aI1
asg10
(lp2529
sg12
I356
sg13
g14
sg15
I2
sg16
I1
sg17
(lp2530
sg19
(lp2531
I9
aI4
asg21
F0.33766388893127441
sg22
(lp2532
g1419
ag1317
asg26
I1
sg27
I1
sg28
I1
sg29
F1102.1530480384827
sg30
(lp2533
F0.104
aF0.753
asg32
g1301
sg34
I01
sa(dp2534
g8
(lp2535
I0
aI0
asg10
(lp2536
sg12
I357
sg13
g14
sg15
I2
sg16
I0
sg17
(lp2537
sg19
(lp2538
I9
aI14
asg21
F0.52933382987976074
sg22
(lp2539
g1419
ag1316
asg26
I1
sg27
I1
sg28
I1
sg29
F1105.2234399318695
sg30
(lp2540
F0.104
aF0.57499999999999996
asg32
g1301
sg34
I01
sa(dp2541
g8
(lp2542
I1
aI0
asg10
(lp2543
sg12
I358
sg13
g14
sg15
I2
sg16
I1
sg17
(lp2544
sg19
(lp2545
I10
aI5
asg21
F0.53133702278137207
sg22
(lp2546
g1369
ag1308
asg26
I1
sg27
I0
sg28
I0
sg29
F1108.2931709289551
sg30
(lp2547
F0.38400000000000001
aF0.20999999999999999
asg32
g1301
sg34
I01
sa(dp2548
g8
(lp2549
I0
aI0
asg10
(lp2550
sg12
I359
sg13
g14
sg15
I2
sg16
I0
sg17
(lp2551
sg19
(lp2552
I13
aI10
asg21
F0.52144002914428711
sg22
(lp2553
g1347
ag1369
asg26
I1
sg27
I0
sg28
I1
sg29
F1111.3633630275726
sg30
(lp2554
F0.48099999999999998
aF0.38400000000000001
asg32
g1301
sg34
I00
sa(dp2555
g8
(lp2556
I0
aI1
asg10
(lp2557
sg12
I360
sg13
g14
sg15
I2
sg16
I1
sg17
(lp2558
sg19
(lp2559
I9
aI14
asg21
F0.64656591415405273
sg22
(lp2560
g1419
ag1316
asg26
I1
sg27
I1
sg28
I1
sg29
F1114.4330101013184
sg30
(lp2561
F0.104
aF0.57499999999999996
asg32
g1301
sg34
I01
sa(dp2562
g8
(lp2563
I0
aI1
asg10
(lp2564
sg12
I361
sg13
g14
sg15
I2
sg16
I1
sg17
(lp2565
sg19
(lp2566
I8
aI14
asg21
F0.45648908615112305
sg22
(lp2567
g1298
ag1316
asg26
I1
sg27
I1
sg28
I1
sg29
F1117.5029320716858
sg30
(lp2568
F0.065000000000000002
aF0.57499999999999996
asg32
g1301
sg34
I01
sa(dp2569
g8
(lp2570
I1
aI0
asg10
(lp2571
sg12
I362
sg13
g14
sg15
I2
sg16
I0
sg17
(lp2572
sg19
(lp2573
I3
aI5
asg21
F0.457550048828125
sg22
(lp2574
g1299
ag1308
asg26
I1
sg27
I0
sg28
I1
sg29
F1120.5735650062561
sg30
(lp2575
F0.88900000000000001
aF0.20999999999999999
asg32
g1301
sg34
I00
sa(dp2576
g8
(lp2577
I0
aI1
asg10
(lp2578
sg12
I363
sg13
g14
sg15
I2
sg16
I0
sg17
(lp2579
sg19
(lp2580
I13
aI14
asg21
F0.33533287048339844
sg22
(lp2581
g1347
ag1316
asg26
I1
sg27
I1
sg28
I0
sg29
F1123.6430549621582
sg30
(lp2582
F0.48099999999999998
aF0.57499999999999996
asg32
g1301
sg34
I00
sa(dp2583
g8
(lp2584
I1
aI0
asg10
(lp2585
sg12
I364
sg13
g14
sg15
I2
sg16
I1
sg17
(lp2586
sg19
(lp2587
I3
aI14
asg21
F0.66311216354370117
sg22
(lp2588
g1299
ag1316
asg26
I1
sg27
I0
sg28
I0
sg29
F1126.7130649089813
sg30
(lp2589
F0.88900000000000001
aF0.57499999999999996
asg32
g1301
sg34
I01
sa(dp2590
g8
(lp2591
I1
aI0
asg10
(lp2592
sg12
I365
sg13
g14
sg15
I2
sg16
I0
sg17
(lp2593
sg19
(lp2594
I14
aI8
asg21
F0.67574691772460938
sg22
(lp2595
g1316
ag1298
asg26
I1
sg27
I0
sg28
I1
sg29
F1129.7837419509888
sg30
(lp2596
F0.57499999999999996
aF0.065000000000000002
asg32
g1301
sg34
I00
sa(dp2597
g8
(lp2598
I0
aI1
asg10
(lp2599
sg12
I366
sg13
g14
sg15
I2
sg16
I0
sg17
(lp2600
sg19
(lp2601
I5
aI14
asg21
F0.93564605712890625
sg22
(lp2602
g1308
ag1316
asg26
I1
sg27
I1
sg28
I0
sg29
F1132.8530230522156
sg30
(lp2603
F0.20999999999999999
aF0.57499999999999996
asg32
g1301
sg34
I00
sa(dp2604
g8
(lp2605
I1
aI0
asg10
(lp2606
sg12
I367
sg13
g14
sg15
I2
sg16
I1
sg17
(lp2607
sg19
(lp2608
I0
aI3
asg21
F0.94801092147827148
sg22
(lp2609
g1325
ag1299
asg26
I1
sg27
I1
sg28
I0
sg29
F1135.9229590892792
sg30
(lp2610
F0.85099999999999998
aF0.88900000000000001
asg32
g1301
sg34
I00
sa(dp2611
g8
(lp2612
I0
aI0
asg10
(lp2613
sg12
I368
sg13
g14
sg15
I2
sg16
I0
sg17
(lp2614
sg19
(lp2615
I13
aI9
asg21
F1.0728681087493896
sg22
(lp2616
g1347
ag1419
asg26
I1
sg27
I0
sg28
I1
sg29
F1138.9929831027985
sg30
(lp2617
F0.48099999999999998
aF0.104
asg32
g1301
sg34
I00
sa(dp2618
g8
(lp2619
I0
aI1
asg10
(lp2620
sg12
I369
sg13
g14
sg15
I2
sg16
I1
sg17
(lp2621
sg19
(lp2622
I5
aI14
asg21
F0.669647216796875
sg22
(lp2623
g1308
ag1316
asg26
I1
sg27
I1
sg28
I1
sg29
F1142.0631439685822
sg30
(lp2624
F0.20999999999999999
aF0.57499999999999996
asg32
g1301
sg34
I01
sa(dp2625
g8
(lp2626
I1
aI0
asg10
(lp2627
sg12
I370
sg13
g14
sg15
I2
sg16
I1
sg17
(lp2628
sg19
(lp2629
I14
aI13
asg21
F1.3907108306884766
sg22
(lp2630
g1316
ag1347
asg26
I1
sg27
I0
sg28
I0
sg29
F1145.1328959465027
sg30
(lp2631
F0.57499999999999996
aF0.48099999999999998
asg32
g1301
sg34
I01
sa(dp2632
g8
(lp2633
I0
aI0
asg10
(lp2634
sg12
I371
sg13
g14
sg15
I2
sg16
I0
sg17
(lp2635
sg19
(lp2636
I9
aI8
asg21
F0.45813703536987305
sg22
(lp2637
g1419
ag1298
asg26
I1
sg27
I0
sg28
I0
sg29
F1148.2027640342712
sg30
(lp2638
F0.104
aF0.065000000000000002
asg32
g1301
sg34
I01
sa(dp2639
g8
(lp2640
I0
aI1
asg10
(lp2641
sg12
I372
sg13
g14
sg15
I2
sg16
I1
sg17
(lp2642
sg19
(lp2643
I8
aI13
asg21
F0.79695010185241699
sg22
(lp2644
g1298
ag1347
asg26
I1
sg27
I1
sg28
I1
sg29
F1151.2727560997009
sg30
(lp2645
F0.065000000000000002
aF0.48099999999999998
asg32
g1301
sg34
I01
sa(dp2646
g8
(lp2647
I0
aI1
asg10
(lp2648
sg12
I373
sg13
g14
sg15
I2
sg16
I1
sg17
(lp2649
sg19
(lp2650
I9
aI0
asg21
F0.84352207183837891
sg22
(lp2651
g1419
ag1325
asg26
I1
sg27
I1
sg28
I1
sg29
F1154.3427059650421
sg30
(lp2652
F0.104
aF0.85099999999999998
asg32
g1301
sg34
I01
sa(dp2653
g8
(lp2654
I0
aI0
asg10
(lp2655
sg12
I374
sg13
g14
sg15
I2
sg16
I0
sg17
(lp2656
sg19
(lp2657
I5
aI4
asg21
F1.4523251056671143
sg22
(lp2658
g1308
ag1317
asg26
I1
sg27
I1
sg28
I0
sg29
F1157.4131939411163
sg30
(lp2659
F0.20999999999999999
aF0.753
asg32
g1301
sg34
I00
sa(dp2660
g8
(lp2661
I1
aI1
asg10
(lp2662
sg12
I375
sg13
g14
sg15
I2
sg16
I1
sg17
(lp2663
sg19
(lp2664
I0
aI4
asg21
F0.72173309326171875
sg22
(lp2665
g1325
ag1317
asg26
I1
sg27
I0
sg28
I0
sg29
F1160.4834759235382
sg30
(lp2666
F0.85099999999999998
aF0.753
asg32
g1301
sg34
I01
sa(dp2667
g8
(lp2668
I0
aI0
asg10
(lp2669
sg12
I376
sg13
g14
sg15
I2
sg16
I0
sg17
(lp2670
sg19
(lp2671
I3
aI10
asg21
F0.8582608699798584
sg22
(lp2672
g1299
ag1369
asg26
I1
sg27
I0
sg28
I0
sg29
F1163.5528841018677
sg30
(lp2673
F0.88900000000000001
aF0.38400000000000001
asg32
g1301
sg34
I01
sa(dp2674
g8
(lp2675
I1
aI1
asg10
(lp2676
sg12
I377
sg13
g14
sg15
I2
sg16
I1
sg17
(lp2677
sg19
(lp2678
I3
aI9
asg21
F0.70264911651611328
sg22
(lp2679
g1299
ag1419
asg26
I1
sg27
I0
sg28
I0
sg29
F1166.6225340366364
sg30
(lp2680
F0.88900000000000001
aF0.104
asg32
g1301
sg34
I01
sa(dp2681
g8
(lp2682
I0
aI0
asg10
(lp2683
sg12
I378
sg13
g14
sg15
I2
sg16
I0
sg17
(lp2684
sg19
(lp2685
I8
aI13
asg21
F1.097275972366333
sg22
(lp2686
g1298
ag1347
asg26
I1
sg27
I1
sg28
I0
sg29
F1169.6927781105042
sg30
(lp2687
F0.065000000000000002
aF0.48099999999999998
asg32
g1301
sg34
I00
sa(dp2688
g8
(lp2689
I1
aI0
asg10
(lp2690
sg12
I379
sg13
g14
sg15
I2
sg16
I1
sg17
(lp2691
sg19
(lp2692
I0
aI9
asg21
F0.39007711410522461
sg22
(lp2693
g1325
ag1419
asg26
I1
sg27
I0
sg28
I0
sg29
F1172.7623610496521
sg30
(lp2694
F0.85099999999999998
aF0.104
asg32
g1301
sg34
I01
sa(dp2695
g8
(lp2696
I1
aI1
asg10
(lp2697
sg12
I380
sg13
g14
sg15
I2
sg16
I1
sg17
(lp2698
sg19
(lp2699
I5
aI14
asg21
F0.42495083808898926
sg22
(lp2700
g1308
ag1316
asg26
I1
sg27
I1
sg28
I0
sg29
F1175.8327300548553
sg30
(lp2701
F0.20999999999999999
aF0.57499999999999996
asg32
g1301
sg34
I00
sa(dp2702
g8
(lp2703
I0
aI0
asg10
(lp2704
sg12
I381
sg13
g14
sg15
I2
sg16
I0
sg17
(lp2705
sg19
(lp2706
I8
aI5
asg21
F0.78650403022766113
sg22
(lp2707
g1298
ag1308
asg26
I1
sg27
I1
sg28
I0
sg29
F1178.902398109436
sg30
(lp2708
F0.065000000000000002
aF0.20999999999999999
asg32
g1301
sg34
I00
sa(dp2709
g8
(lp2710
I0
aI0
asg10
(lp2711
sg12
I382
sg13
g14
sg15
I2
sg16
I0
sg17
(lp2712
sg19
(lp2713
I8
aI10
asg21
F0.64158105850219727
sg22
(lp2714
g1298
ag1369
asg26
I1
sg27
I1
sg28
I0
sg29
F1181.9727210998535
sg30
(lp2715
F0.065000000000000002
aF0.38400000000000001
asg32
g1301
sg34
I00
sa(dp2716
g8
(lp2717
I1
aI1
asg10
(lp2718
sg12
I383
sg13
g14
sg15
I2
sg16
I1
sg17
(lp2719
sg19
(lp2720
I3
aI9
asg21
F0.55302214622497559
sg22
(lp2721
g1299
ag1419
asg26
I1
sg27
I0
sg28
I0
sg29
F1185.0425040721893
sg30
(lp2722
F0.88900000000000001
aF0.104
asg32
g1301
sg34
I01
sa(dp2723
g8
(lp2724
I0
aI1
asg10
(lp2725
sg12
I384
sg13
g14
sg15
I2
sg16
I0
sg17
(lp2726
sg19
(lp2727
I10
aI3
asg21
F0.47558903694152832
sg22
(lp2728
g1369
ag1299
asg26
I1
sg27
I1
sg28
I0
sg29
F1188.1130900382996
sg30
(lp2729
F0.38400000000000001
aF0.88900000000000001
asg32
g1301
sg34
I00
sa(dp2730
g8
(lp2731
I0
aI0
asg10
(lp2732
sg12
I385
sg13
g14
sg15
I2
sg16
I0
sg17
(lp2733
sg19
(lp2734
I10
aI9
asg21
F0.54405903816223145
sg22
(lp2735
g1369
ag1419
asg26
I1
sg27
I0
sg28
I1
sg29
F1191.1822810173035
sg30
(lp2736
F0.38400000000000001
aF0.104
asg32
g1301
sg34
I00
sa(dp2737
g8
(lp2738
I0
aI1
asg10
(lp2739
sg12
I386
sg13
g14
sg15
I2
sg16
I0
sg17
(lp2740
sg19
(lp2741
I5
aI13
asg21
F0.24161982536315918
sg22
(lp2742
g1308
ag1347
asg26
I1
sg27
I1
sg28
I0
sg29
F1194.2525789737701
sg30
(lp2743
F0.20999999999999999
aF0.48099999999999998
asg32
g1301
sg34
I00
sa(dp2744
g8
(lp2745
I1
aI0
asg10
(lp2746
sg12
I387
sg13
g14
sg15
I2
sg16
I0
sg17
(lp2747
sg19
(lp2748
I14
aI9
asg21
F0.27683496475219727
sg22
(lp2749
g1316
ag1419
asg26
I1
sg27
I0
sg28
I1
sg29
F1197.3222289085388
sg30
(lp2750
F0.57499999999999996
aF0.104
asg32
g1301
sg34
I00
sa(dp2751
g8
(lp2752
I1
aI0
asg10
(lp2753
sg12
I388
sg13
g14
sg15
I2
sg16
I1
sg17
(lp2754
sg19
(lp2755
I4
aI9
asg21
F0.26687192916870117
sg22
(lp2756
g1317
ag1419
asg26
I1
sg27
I0
sg28
I0
sg29
F1200.392874956131
sg30
(lp2757
F0.753
aF0.104
asg32
g1301
sg34
I01
sa(dp2758
g8
(lp2759
I0
aI1
asg10
(lp2760
sg12
I389
sg13
g14
sg15
I2
sg16
I0
sg17
(lp2761
sg19
(lp2762
I9
aI14
asg21
F0.26821303367614746
sg22
(lp2763
g1419
ag1316
asg26
I1
sg27
I1
sg28
I0
sg29
F1203.4621820449829
sg30
(lp2764
F0.104
aF0.57499999999999996
asg32
g1301
sg34
I00
sa(dp2765
g8
(lp2766
I1
aI0
asg10
(lp2767
sg12
I390
sg13
g14
sg15
I2
sg16
I0
sg17
(lp2768
sg19
(lp2769
I13
aI8
asg21
F0.29195094108581543
sg22
(lp2770
g1347
ag1298
asg26
I1
sg27
I0
sg28
I1
sg29
F1206.5324940681458
sg30
(lp2771
F0.48099999999999998
aF0.065000000000000002
asg32
g1301
sg34
I00
sa(dp2772
g8
(lp2773
I0
aI1
asg10
(lp2774
sg12
I391
sg13
g14
sg15
I2
sg16
I0
sg17
(lp2775
sg19
(lp2776
I9
aI0
asg21
F0.45039916038513184
sg22
(lp2777
g1419
ag1325
asg26
I1
sg27
I1
sg28
I0
sg29
F1209.6022050380707
sg30
(lp2778
F0.104
aF0.85099999999999998
asg32
g1301
sg34
I00
sa(dp2779
g8
(lp2780
I1
aI1
asg10
(lp2781
sg12
I392
sg13
g14
sg15
I2
sg16
I1
sg17
(lp2782
sg19
(lp2783
I4
aI3
asg21
F0.76719093322753906
sg22
(lp2784
g1317
ag1299
asg26
I1
sg27
I1
sg28
I1
sg29
F1212.672455072403
sg30
(lp2785
F0.753
aF0.88900000000000001
asg32
g1301
sg34
I01
sa(dp2786
g8
(lp2787
I0
aI0
asg10
(lp2788
sg12
I393
sg13
g14
sg15
I2
sg16
I0
sg17
(lp2789
sg19
(lp2790
I5
aI10
asg21
F0.37473106384277344
sg22
(lp2791
g1308
ag1369
asg26
I1
sg27
I1
sg28
I0
sg29
F1215.7424941062927
sg30
(lp2792
F0.20999999999999999
aF0.38400000000000001
asg32
g1301
sg34
I00
sa(dp2793
g8
(lp2794
I1
aI1
asg10
(lp2795
sg12
I394
sg13
g14
sg15
I2
sg16
I1
sg17
(lp2796
sg19
(lp2797
I10
aI4
asg21
F0.45475196838378906
sg22
(lp2798
g1369
ag1317
asg26
I1
sg27
I1
sg28
I1
sg29
F1218.8133900165558
sg30
(lp2799
F0.38400000000000001
aF0.753
asg32
g1301
sg34
I01
sa(dp2800
g8
(lp2801
I1
aI1
asg10
(lp2802
sg12
I395
sg13
g14
sg15
I2
sg16
I1
sg17
(lp2803
sg19
(lp2804
I3
aI8
asg21
F0.34316587448120117
sg22
(lp2805
g1299
ag1298
asg26
I1
sg27
I0
sg28
I0
sg29
F1221.8823440074921
sg30
(lp2806
F0.88900000000000001
aF0.065000000000000002
asg32
g1301
sg34
I01
sa(dp2807
g8
(lp2808
I0
aI0
asg10
(lp2809
sg12
I396
sg13
g14
sg15
I2
sg16
I0
sg17
(lp2810
sg19
(lp2811
I10
aI14
asg21
F0.36734485626220703
sg22
(lp2812
g1369
ag1316
asg26
I1
sg27
I1
sg28
I0
sg29
F1224.9520959854126
sg30
(lp2813
F0.38400000000000001
aF0.57499999999999996
asg32
g1301
sg34
I00
sa(dp2814
g8
(lp2815
I1
aI0
asg10
(lp2816
sg12
I397
sg13
g14
sg15
I2
sg16
I0
sg17
(lp2817
sg19
(lp2818
I3
aI9
asg21
F0.48116683959960938
sg22
(lp2819
g1299
ag1419
asg26
I1
sg27
I0
sg28
I1
sg29
F1228.0219819545746
sg30
(lp2820
F0.88900000000000001
aF0.104
asg32
g1301
sg34
I00
sa(dp2821
g8
(lp2822
I1
aI0
asg10
(lp2823
sg12
I398
sg13
g14
sg15
I2
sg16
I1
sg17
(lp2824
sg19
(lp2825
I10
aI8
asg21
F0.24664402008056641
sg22
(lp2826
g1369
ag1298
asg26
I1
sg27
I0
sg28
I0
sg29
F1231.0922451019287
sg30
(lp2827
F0.38400000000000001
aF0.065000000000000002
asg32
g1301
sg34
I01
sa(dp2828
g8
(lp2829
I0
aI0
asg10
(lp2830
sg12
I399
sg13
g14
sg15
I2
sg16
I0
sg17
(lp2831
sg19
(lp2832
I9
aI5
asg21
F1.2259280681610107
sg22
(lp2833
g1419
ag1308
asg26
I1
sg27
I1
sg28
I1
sg29
F1234.161917924881
sg30
(lp2834
F0.104
aF0.20999999999999999
asg32
g1301
sg34
I01
sa(dp2835
g8
(lp2836
I1
aI1
asg10
(lp2837
sg12
I400
sg13
g14
sg15
I2
sg16
I1
sg17
(lp2838
sg19
(lp2839
I13
aI0
asg21
F0.48485803604125977
sg22
(lp2840
g1347
ag1325
asg26
I1
sg27
I1
sg28
I0
sg29
F1237.231908082962
sg30
(lp2841
F0.48099999999999998
aF0.85099999999999998
asg32
g1301
sg34
I00
sa(dp2842
g8
(lp2843
I1
aI1
asg10
(lp2844
sg12
I401
sg13
g14
sg15
I2
sg16
I1
sg17
(lp2845
sg19
(lp2846
I3
aI4
asg21
F0.65481305122375488
sg22
(lp2847
g1299
ag1317
asg26
I1
sg27
I0
sg28
I0
sg29
F1240.3020000457764
sg30
(lp2848
F0.88900000000000001
aF0.753
asg32
g1301
sg34
I01
sa(dp2849
g8
(lp2850
I0
aI0
asg10
(lp2851
sg12
I402
sg13
g14
sg15
I2
sg16
I0
sg17
(lp2852
sg19
(lp2853
I13
aI9
asg21
F0.72344207763671875
sg22
(lp2854
g1347
ag1419
asg26
I1
sg27
I0
sg28
I0
sg29
F1243.3722839355469
sg30
(lp2855
F0.48099999999999998
aF0.104
asg32
g1301
sg34
I01
sa(dp2856
g8
(lp2857
I0
aI1
asg10
(lp2858
sg12
I403
sg13
g14
sg15
I2
sg16
I1
sg17
(lp2859
sg19
(lp2860
I8
aI13
asg21
F0.89390206336975098
sg22
(lp2861
g1298
ag1347
asg26
I1
sg27
I1
sg28
I1
sg29
F1246.4418320655823
sg30
(lp2862
F0.065000000000000002
aF0.48099999999999998
asg32
g1301
sg34
I01
sa(dp2863
g8
(lp2864
I0
aI0
asg10
(lp2865
sg12
I404
sg13
g14
sg15
I2
sg16
I0
sg17
(lp2866
sg19
(lp2867
I5
aI13
asg21
F0.43390202522277832
sg22
(lp2868
g1308
ag1347
asg26
I1
sg27
I1
sg28
I1
sg29
F1249.512363910675
sg30
(lp2869
F0.20999999999999999
aF0.48099999999999998
asg32
g1301
sg34
I01
sa(dp2870
g8
(lp2871
I0
aI1
asg10
(lp2872
sg12
I405
sg13
g14
sg15
I2
sg16
I0
sg17
(lp2873
sg19
(lp2874
I8
aI0
asg21
F0.3792569637298584
sg22
(lp2875
g1298
ag1325
asg26
I1
sg27
I1
sg28
I0
sg29
F1252.582221031189
sg30
(lp2876
F0.065000000000000002
aF0.85099999999999998
asg32
g1301
sg34
I00
sa(dp2877
g8
(lp2878
I1
aI1
asg10
(lp2879
sg12
I406
sg13
g14
sg15
I2
sg16
I1
sg17
(lp2880
sg19
(lp2881
I3
aI10
asg21
F1.0548160076141357
sg22
(lp2882
g1299
ag1369
asg26
I1
sg27
I0
sg28
I1
sg29
F1255.6519639492035
sg30
(lp2883
F0.88900000000000001
aF0.38400000000000001
asg32
g1301
sg34
I00
sa(dp2884
g8
(lp2885
I0
aI1
asg10
(lp2886
sg12
I407
sg13
g14
sg15
I2
sg16
I1
sg17
(lp2887
sg19
(lp2888
I9
aI14
asg21
F1.1130478382110596
sg22
(lp2889
g1419
ag1316
asg26
I1
sg27
I1
sg28
I1
sg29
F1258.7222609519958
sg30
(lp2890
F0.104
aF0.57499999999999996
asg32
g1301
sg34
I01
sa(dp2891
g8
(lp2892
I1
aI1
asg10
(lp2893
sg12
I408
sg13
g14
sg15
I2
sg16
I1
sg17
(lp2894
sg19
(lp2895
I14
aI5
asg21
F0.97934889793395996
sg22
(lp2896
g1316
ag1308
asg26
I1
sg27
I0
sg28
I1
sg29
F1261.7919790744781
sg30
(lp2897
F0.57499999999999996
aF0.20999999999999999
asg32
g1301
sg34
I00
sa(dp2898
g8
(lp2899
I0
aI0
asg10
(lp2900
sg12
I409
sg13
g14
sg15
I2
sg16
I0
sg17
(lp2901
sg19
(lp2902
I4
aI8
asg21
F0.92508578300476074
sg22
(lp2903
g1317
ag1298
asg26
I1
sg27
I0
sg28
I0
sg29
F1267.8652889728546
sg30
(lp2904
F0.753
aF0.065000000000000002
asg32
g1301
sg34
I01
sa(dp2905
g8
(lp2906
I0
aI1
asg10
(lp2907
sg12
I410
sg13
g14
sg15
I2
sg16
I1
sg17
(lp2908
sg19
(lp2909
I9
aI13
asg21
F0.62228298187255859
sg22
(lp2910
g1419
ag1347
asg26
I1
sg27
I1
sg28
I1
sg29
F1270.9346609115601
sg30
(lp2911
F0.104
aF0.48099999999999998
asg32
g1301
sg34
I01
sa(dp2912
g8
(lp2913
I0
aI0
asg10
(lp2914
sg12
I411
sg13
g14
sg15
I2
sg16
I0
sg17
(lp2915
sg19
(lp2916
I5
aI0
asg21
F1.3664259910583496
sg22
(lp2917
g1308
ag1325
asg26
I1
sg27
I1
sg28
I1
sg29
F1274.0050461292267
sg30
(lp2918
F0.20999999999999999
aF0.85099999999999998
asg32
g1301
sg34
I01
sa(dp2919
g8
(lp2920
I0
aI1
asg10
(lp2921
sg12
I412
sg13
g14
sg15
I2
sg16
I0
sg17
(lp2922
sg19
(lp2923
I0
aI8
asg21
F0.7151939868927002
sg22
(lp2924
g1325
ag1298
asg26
I1
sg27
I0
sg28
I0
sg29
F1277.0748729705811
sg30
(lp2925
F0.85099999999999998
aF0.065000000000000002
asg32
g1301
sg34
I01
sa(dp2926
g8
(lp2927
I1
aI1
asg10
(lp2928
sg12
I413
sg13
g14
sg15
I2
sg16
I1
sg17
(lp2929
sg19
(lp2930
I14
aI10
asg21
F0.91855287551879883
sg22
(lp2931
g1316
ag1369
asg26
I1
sg27
I0
sg28
I0
sg29
F1280.1448910236359
sg30
(lp2932
F0.57499999999999996
aF0.38400000000000001
asg32
g1301
sg34
I01
sa(dp2933
g8
(lp2934
I0
aI0
asg10
(lp2935
sg12
I414
sg13
g14
sg15
I2
sg16
I0
sg17
(lp2936
sg19
(lp2937
I8
aI5
asg21
F0.30095505714416504
sg22
(lp2938
g1298
ag1308
asg26
I1
sg27
I1
sg28
I0
sg29
F1283.2153859138489
sg30
(lp2939
F0.065000000000000002
aF0.20999999999999999
asg32
g1301
sg34
I00
sa(dp2940
g8
(lp2941
I1
aI0
asg10
(lp2942
sg12
I415
sg13
g14
sg15
I2
sg16
I1
sg17
(lp2943
sg19
(lp2944
I4
aI13
asg21
F0.1340179443359375
sg22
(lp2945
g1317
ag1347
asg26
I1
sg27
I0
sg28
I0
sg29
F1286.284912109375
sg30
(lp2946
F0.753
aF0.48099999999999998
asg32
g1301
sg34
I01
sa(dp2947
g8
(lp2948
I1
aI0
asg10
(lp2949
sg12
I416
sg13
g14
sg15
I2
sg16
I1
sg17
(lp2950
sg19
(lp2951
I4
aI5
asg21
F0.22548103332519531
sg22
(lp2952
g1317
ag1308
asg26
I1
sg27
I0
sg28
I0
sg29
F1289.354905128479
sg30
(lp2953
F0.753
aF0.20999999999999999
asg32
g1301
sg34
I01
sa(dp2954
g8
(lp2955
I1
aI0
asg10
(lp2956
sg12
I417
sg13
g14
sg15
I2
sg16
I0
sg17
(lp2957
sg19
(lp2958
I4
aI10
asg21
F0.35026192665100098
sg22
(lp2959
g1317
ag1369
asg26
I1
sg27
I0
sg28
I1
sg29
F1292.4249229431152
sg30
(lp2960
F0.753
aF0.38400000000000001
asg32
g1301
sg34
I00
sa(dp2961
g8
(lp2962
I1
aI1
asg10
(lp2963
sg12
I418
sg13
g14
sg15
I2
sg16
I1
sg17
(lp2964
sg19
(lp2965
I0
aI14
asg21
F0.40799903869628906
sg22
(lp2966
g1325
ag1316
asg26
I1
sg27
I0
sg28
I1
sg29
F1295.4947381019592
sg30
(lp2967
F0.85099999999999998
aF0.57499999999999996
asg32
g1301
sg34
I00
sa(dp2968
g8
(lp2969
I1
aI0
asg10
(lp2970
sg12
I419
sg13
g14
sg15
I2
sg16
I0
sg17
(lp2971
sg19
(lp2972
I0
aI8
asg21
F0.9038078784942627
sg22
(lp2973
g1325
ag1298
asg26
I1
sg27
I0
sg28
I1
sg29
F1298.5647001266479
sg30
(lp2974
F0.85099999999999998
aF0.065000000000000002
asg32
g1301
sg34
I00
sa(dp2975
g8
(lp2976
I1
aI1
asg10
(lp2977
sg12
I420
sg13
g14
sg15
I2
sg16
I1
sg17
(lp2978
sg19
(lp2979
I5
aI10
asg21
F0.86068987846374512
sg22
(lp2980
g1308
ag1369
asg26
I1
sg27
I1
sg28
I0
sg29
F1301.6347899436951
sg30
(lp2981
F0.20999999999999999
aF0.38400000000000001
asg32
g1301
sg34
I00
sa(dp2982
g8
(lp2983
I1
aI1
asg10
(lp2984
sg12
I421
sg13
g14
sg15
I2
sg16
I1
sg17
(lp2985
sg19
(lp2986
I10
aI0
asg21
F0.56912398338317871
sg22
(lp2987
g1369
ag1325
asg26
I1
sg27
I1
sg28
I1
sg29
F1304.7044589519501
sg30
(lp2988
F0.38400000000000001
aF0.85099999999999998
asg32
g1301
sg34
I01
sa(dp2989
g8
(lp2990
I0
aI1
asg10
(lp2991
sg12
I422
sg13
g14
sg15
I2
sg16
I1
sg17
(lp2992
sg19
(lp2993
I8
aI0
asg21
F0.53680682182312012
sg22
(lp2994
g1298
ag1325
asg26
I1
sg27
I1
sg28
I1
sg29
F1307.7745840549469
sg30
(lp2995
F0.065000000000000002
aF0.85099999999999998
asg32
g1301
sg34
I01
sa(dp2996
g8
(lp2997
I1
aI0
asg10
(lp2998
sg12
I423
sg13
g14
sg15
I2
sg16
I0
sg17
(lp2999
sg19
(lp3000
I3
aI10
asg21
F0.80812692642211914
sg22
(lp3001
g1299
ag1369
asg26
I1
sg27
I0
sg28
I1
sg29
F1310.8453209400177
sg30
(lp3002
F0.88900000000000001
aF0.38400000000000001
asg32
g1301
sg34
I00
sa(dp3003
g8
(lp3004
I0
aI0
asg10
(lp3005
sg12
I424
sg13
g14
sg15
I2
sg16
I0
sg17
(lp3006
sg19
(lp3007
I8
aI3
asg21
F0.70855283737182617
sg22
(lp3008
g1298
ag1299
asg26
I1
sg27
I1
sg28
I0
sg29
F1313.9148030281067
sg30
(lp3009
F0.065000000000000002
aF0.88900000000000001
asg32
g1301
sg34
I00
sa(dp3010
g8
(lp3011
I0
aI1
asg10
(lp3012
sg12
I425
sg13
g14
sg15
I2
sg16
I1
sg17
(lp3013
sg19
(lp3014
I9
aI10
asg21
F0.74296116828918457
sg22
(lp3015
g1419
ag1369
asg26
I1
sg27
I1
sg28
I1
sg29
F1316.9847891330719
sg30
(lp3016
F0.104
aF0.38400000000000001
asg32
g1301
sg34
I01
sa(dp3017
g8
(lp3018
I1
aI0
asg10
(lp3019
sg12
I426
sg13
g14
sg15
I2
sg16
Fnan
sg17
(lp3020
sg19
(lp3021
I3
aI14
asg21
Fnan
sg22
(lp3022
g1299
ag1316
asg26
I1
sg27
I0
sg28
Fnan
sg29
F1320.0544319152832
sg30
(lp3023
F0.88900000000000001
aF0.57499999999999996
asg32
g1301
sa(dp3024
g8
(lp3025
I1
aI0
asg10
(lp3026
sg12
I427
sg13
g14
sg15
I2
sg16
I0
sg17
(lp3027
sg19
(lp3028
I0
aI10
asg21
F0.24545598030090332
sg22
(lp3029
g1325
ag1369
asg26
I1
sg27
I0
sg28
I1
sg29
F1323.1413109302521
sg30
(lp3030
F0.85099999999999998
aF0.38400000000000001
asg32
g1301
sg34
I00
sa(dp3031
g8
(lp3032
I1
aI0
asg10
(lp3033
sg12
I428
sg13
g14
sg15
I2
sg16
I1
sg17
(lp3034
sg19
(lp3035
I10
aI9
asg21
F0.5055539608001709
sg22
(lp3036
g1369
ag1419
asg26
I1
sg27
I0
sg28
I0
sg29
F1326.2115850448608
sg30
(lp3037
F0.38400000000000001
aF0.104
asg32
g1301
sg34
I01
sa(dp3038
g8
(lp3039
I0
aI0
asg10
(lp3040
sg12
I429
sg13
g14
sg15
I2
sg16
I0
sg17
(lp3041
sg19
(lp3042
I5
aI13
asg21
F0.33803677558898926
sg22
(lp3043
g1308
ag1347
asg26
I1
sg27
I1
sg28
I0
sg29
F1329.2814049720764
sg30
(lp3044
F0.20999999999999999
aF0.48099999999999998
asg32
g1301
sg34
I00
sa(dp3045
g8
(lp3046
I0
aI1
asg10
(lp3047
sg12
I430
sg13
g14
sg15
I2
sg16
I0
sg17
(lp3048
sg19
(lp3049
I9
aI5
asg21
F0.77842903137207031
sg22
(lp3050
g1419
ag1308
asg26
I1
sg27
I1
sg28
I0
sg29
F1332.3511419296265
sg30
(lp3051
F0.104
aF0.20999999999999999
asg32
g1301
sg34
I00
sa(dp3052
g8
(lp3053
I0
aI0
asg10
(lp3054
sg12
I431
sg13
g14
sg15
I2
sg16
I0
sg17
(lp3055
sg19
(lp3056
I5
aI9
asg21
F0.43047499656677246
sg22
(lp3057
g1308
ag1419
asg26
I1
sg27
I0
sg28
I0
sg29
F1335.4214820861816
sg30
(lp3058
F0.20999999999999999
aF0.104
asg32
g1301
sg34
I01
sa(dp3059
g8
(lp3060
I1
aI0
asg10
(lp3061
sg12
I432
sg13
g14
sg15
I2
sg16
I0
sg17
(lp3062
sg19
(lp3063
I14
aI8
asg21
F0.47694706916809082
sg22
(lp3064
g1316
ag1298
asg26
I1
sg27
I0
sg28
I1
sg29
F1338.4922580718994
sg30
(lp3065
F0.57499999999999996
aF0.065000000000000002
asg32
g1301
sg34
I00
sa(dp3066
g8
(lp3067
I1
aI0
asg10
(lp3068
sg12
I433
sg13
g14
sg15
I2
sg16
I1
sg17
(lp3069
sg19
(lp3070
I14
aI9
asg21
F0.59071016311645508
sg22
(lp3071
g1316
ag1419
asg26
I1
sg27
I0
sg28
I0
sg29
F1341.5609741210938
sg30
(lp3072
F0.57499999999999996
aF0.104
asg32
g1301
sg34
I01
sa(dp3073
g8
(lp3074
I1
aI1
asg10
(lp3075
sg12
I434
sg13
g14
sg15
I2
sg16
I1
sg17
(lp3076
sg19
(lp3077
I10
aI0
asg21
F0.8055269718170166
sg22
(lp3078
g1369
ag1325
asg26
I1
sg27
I1
sg28
I1
sg29
F1344.6312401294708
sg30
(lp3079
F0.38400000000000001
aF0.85099999999999998
asg32
g1301
sg34
I01
sa(dp3080
g8
(lp3081
I0
aI0
asg10
(lp3082
sg12
I435
sg13
g14
sg15
I2
sg16
I0
sg17
(lp3083
sg19
(lp3084
I10
aI8
asg21
F0.3910830020904541
sg22
(lp3085
g1369
ag1298
asg26
I1
sg27
I0
sg28
I0
sg29
F1347.7012259960175
sg30
(lp3086
F0.38400000000000001
aF0.065000000000000002
asg32
g1301
sg34
I01
sa(dp3087
g8
(lp3088
I0
aI1
asg10
(lp3089
sg12
I436
sg13
g14
sg15
I2
sg16
I0
sg17
(lp3090
sg19
(lp3091
I9
aI3
asg21
F0.368988037109375
sg22
(lp3092
g1419
ag1299
asg26
I1
sg27
I1
sg28
I0
sg29
F1350.7708840370178
sg30
(lp3093
F0.104
aF0.88900000000000001
asg32
g1301
sg34
I00
sa(dp3094
g8
(lp3095
I0
aI1
asg10
(lp3096
sg12
I437
sg13
g14
sg15
I2
sg16
I1
sg17
(lp3097
sg19
(lp3098
I9
aI0
asg21
F0.38239407539367676
sg22
(lp3099
g1419
ag1325
asg26
I1
sg27
I1
sg28
I1
sg29
F1353.8408689498901
sg30
(lp3100
F0.104
aF0.85099999999999998
asg32
g1301
sg34
I01
sa(dp3101
g8
(lp3102
I1
aI0
asg10
(lp3103
sg12
I438
sg13
g14
sg15
I2
sg16
I0
sg17
(lp3104
sg19
(lp3105
I4
aI14
asg21
F0.42841792106628418
sg22
(lp3106
g1317
ag1316
asg26
I1
sg27
I0
sg28
I1
sg29
F1356.9110889434814
sg30
(lp3107
F0.753
aF0.57499999999999996
asg32
g1301
sg34
I00
sa(dp3108
g8
(lp3109
I0
aI1
asg10
(lp3110
sg12
I439
sg13
g14
sg15
I2
sg16
I0
sg17
(lp3111
sg19
(lp3112
I10
aI4
asg21
F0.49698781967163086
sg22
(lp3113
g1369
ag1317
asg26
I1
sg27
I1
sg28
I0
sg29
F1359.9807469844818
sg30
(lp3114
F0.38400000000000001
aF0.753
asg32
g1301
sg34
I00
sa(dp3115
g8
(lp3116
I0
aI1
asg10
(lp3117
sg12
I440
sg13
g14
sg15
I2
sg16
I1
sg17
(lp3118
sg19
(lp3119
I10
aI4
asg21
F0.68999385833740234
sg22
(lp3120
g1369
ag1317
asg26
I1
sg27
I1
sg28
I1
sg29
F1363.0508069992065
sg30
(lp3121
F0.38400000000000001
aF0.753
asg32
g1301
sg34
I01
sa(dp3122
g8
(lp3123
I1
aI0
asg10
(lp3124
sg12
I441
sg13
g14
sg15
I2
sg16
I0
sg17
(lp3125
sg19
(lp3126
I0
aI4
asg21
F0.8039250373840332
sg22
(lp3127
g1325
ag1317
asg26
I1
sg27
I0
sg28
I1
sg29
F1366.1212100982666
sg30
(lp3128
F0.85099999999999998
aF0.753
asg32
g1301
sg34
I00
sa(dp3129
g8
(lp3130
I0
aI0
asg10
(lp3131
sg12
I442
sg13
g14
sg15
I2
sg16
I0
sg17
(lp3132
sg19
(lp3133
I9
aI0
asg21
F0.82770800590515137
sg22
(lp3134
g1419
ag1325
asg26
I1
sg27
I1
sg28
I1
sg29
F1369.1906940937042
sg30
(lp3135
F0.104
aF0.85099999999999998
asg32
g1301
sg34
I01
sa(dp3136
g8
(lp3137
I1
aI1
asg10
(lp3138
S'right'
p3139
asg12
I443
sg13
g14
sg15
I2
sg16
I1
sg17
(lp3140
F1.790816068649292
asg19
(lp3141
I5
aI14
asg21
F1.7742209434509277
sg22
(lp3142
g1308
ag1316
asg26
I1
sg27
I1
sg28
I0
sg29
F1372.2610850334167
sg30
(lp3143
F0.20999999999999999
aF0.57499999999999996
asg32
g1301
sg34
I00
sa(dp3144
g8
(lp3145
I0
aI0
asg10
(lp3146
S'right'
p3147
asg12
I444
sg13
g14
sg15
I2
sg16
I0
sg17
(lp3148
F0.63313412666320801
asg19
(lp3149
I4
aI5
asg21
F0.61653518676757812
sg22
(lp3150
g1317
ag1308
asg26
I1
sg27
I0
sg28
I0
sg29
F1375.3307631015778
sg30
(lp3151
F0.753
aF0.20999999999999999
asg32
g1301
sg34
I01
sa(dp3152
g8
(lp3153
I0
aI0
asg10
(lp3154
sg12
I445
sg13
g14
sg15
I2
sg16
I0
sg17
(lp3155
sg19
(lp3156
I5
aI8
asg21
F0.34750509262084961
sg22
(lp3157
g1308
ag1298
asg26
I1
sg27
I0
sg28
I1
sg29
F1378.40119099617
sg30
(lp3158
F0.20999999999999999
aF0.065000000000000002
asg32
g1301
sg34
I00
sa(dp3159
g8
(lp3160
I1
aI1
asg10
(lp3161
sg12
I446
sg13
g14
sg15
I2
sg16
I1
sg17
(lp3162
sg19
(lp3163
I3
aI4
asg21
F0.43896198272705078
sg22
(lp3164
g1299
ag1317
asg26
I1
sg27
I0
sg28
I0
sg29
F1381.4707081317902
sg30
(lp3165
F0.88900000000000001
aF0.753
asg32
g1301
sg34
I01
sa(dp3166
g8
(lp3167
I0
aI0
asg10
(lp3168
sg12
I447
sg13
g14
sg15
I2
sg16
I0
sg17
(lp3169
sg19
(lp3170
I5
aI9
asg21
F0.7444460391998291
sg22
(lp3171
g1308
ag1419
asg26
I1
sg27
I0
sg28
I0
sg29
F1384.5406029224396
sg30
(lp3172
F0.20999999999999999
aF0.104
asg32
g1301
sg34
I01
sa(dp3173
g8
(lp3174
I1
aI0
asg10
(lp3175
sg12
I448
sg13
g14
sg15
I2
sg16
I1
sg17
(lp3176
sg19
(lp3177
I0
aI9
asg21
F0.89181900024414062
sg22
(lp3178
g1325
ag1419
asg26
I1
sg27
I0
sg28
I0
sg29
F1387.610641002655
sg30
(lp3179
F0.85099999999999998
aF0.104
asg32
g1301
sg34
I01
sa(dp3180
g8
(lp3181
I0
aI1
asg10
(lp3182
sg12
I449
sg13
g14
sg15
I2
sg16
I1
sg17
(lp3183
sg19
(lp3184
I8
aI4
asg21
F1.1966359615325928
sg22
(lp3185
g1298
ag1317
asg26
I1
sg27
I1
sg28
I1
sg29
F1390.6807329654694
sg30
(lp3186
F0.065000000000000002
aF0.753
asg32
g1301
sg34
I01
sa(dp3187
g8
(lp3188
I1
aI1
asg10
(lp3189
sg12
I450
sg13
g14
sg15
I2
sg16
I1
sg17
(lp3190
sg19
(lp3191
I3
aI13
asg21
F1.0068368911743164
sg22
(lp3192
g1299
ag1347
asg26
I1
sg27
I0
sg28
I0
sg29
F1393.7504489421844
sg30
(lp3193
F0.88900000000000001
aF0.48099999999999998
asg32
g1301
sg34
I01
sa(dp3194
g8
(lp3195
I1
aI0
asg10
(lp3196
sg12
I451
sg13
g14
sg15
I2
sg16
I1
sg17
(lp3197
sg19
(lp3198
I4
aI9
asg21
F0.73847007751464844
sg22
(lp3199
g1317
ag1419
asg26
I1
sg27
I0
sg28
I0
sg29
F1396.8209481239319
sg30
(lp3200
F0.753
aF0.104
asg32
g1301
sg34
I01
sa(dp3201
g8
(lp3202
I0
aI0
asg10
(lp3203
sg12
I452
sg13
g14
sg15
I2
sg16
I0
sg17
(lp3204
sg19
(lp3205
I10
aI5
asg21
F0.97580695152282715
sg22
(lp3206
g1369
ag1308
asg26
I1
sg27
I0
sg28
I1
sg29
F1399.8908820152283
sg30
(lp3207
F0.38400000000000001
aF0.20999999999999999
asg32
g1301
sg34
I00
sa(dp3208
g8
(lp3209
I0
aI1
asg10
(lp3210
sg12
I453
sg13
g14
sg15
I2
sg16
I1
sg17
(lp3211
sg19
(lp3212
I10
aI3
asg21
F0.74036383628845215
sg22
(lp3213
g1369
ag1299
asg26
I1
sg27
I1
sg28
I1
sg29
F1402.9604210853577
sg30
(lp3214
F0.38400000000000001
aF0.88900000000000001
asg32
g1301
sg34
I01
sa(dp3215
g8
(lp3216
I0
aI1
asg10
(lp3217
sg12
I454
sg13
g14
sg15
I2
sg16
I1
sg17
(lp3218
sg19
(lp3219
I4
aI13
asg21
F0.68569493293762207
sg22
(lp3220
g1317
ag1347
asg26
I1
sg27
I0
sg28
I1
sg29
F1406.0308730602264
sg30
(lp3221
F0.753
aF0.48099999999999998
asg32
g1301
sg34
I00
sa(dp3222
g8
(lp3223
I0
aI0
asg10
(lp3224
sg12
I455
sg13
g14
sg15
I2
sg16
I0
sg17
(lp3225
sg19
(lp3226
I10
aI5
asg21
F0.84464502334594727
sg22
(lp3227
g1369
ag1308
asg26
I1
sg27
I0
sg28
I0
sg29
F1409.1001350879669
sg30
(lp3228
F0.38400000000000001
aF0.20999999999999999
asg32
g1301
sg34
I01
sa(dp3229
g8
(lp3230
I0
aI0
asg10
(lp3231
sg12
I456
sg13
g14
sg15
I2
sg16
I0
sg17
(lp3232
sg19
(lp3233
I13
aI0
asg21
F0.99210309982299805
sg22
(lp3234
g1347
ag1325
asg26
I1
sg27
I1
sg28
I1
sg29
F1412.1705570220947
sg30
(lp3235
F0.48099999999999998
aF0.85099999999999998
asg32
g1301
sg34
I01
sa(dp3236
g8
(lp3237
I1
aI1
asg10
(lp3238
sg12
I457
sg13
g14
sg15
I2
sg16
I1
sg17
(lp3239
sg19
(lp3240
I13
aI14
asg21
F0.014677047729492188
sg22
(lp3241
g1347
ag1316
asg26
I1
sg27
I1
sg28
I1
sg29
F1415.2404499053955
sg30
(lp3242
F0.48099999999999998
aF0.57499999999999996
asg32
g1301
sg34
I01
sa(dp3243
g8
(lp3244
I1
aI0
asg10
(lp3245
sg12
I458
sg13
g14
sg15
I2
sg16
I1
sg17
(lp3246
sg19
(lp3247
I14
aI8
asg21
F0.74716806411743164
sg22
(lp3248
g1316
ag1298
asg26
I1
sg27
I0
sg28
I0
sg29
F1418.3103821277618
sg30
(lp3249
F0.57499999999999996
aF0.065000000000000002
asg32
g1301
sg34
I01
sa(dp3250
g8
(lp3251
I0
aI0
asg10
(lp3252
sg12
I459
sg13
g14
sg15
I2
sg16
I0
sg17
(lp3253
sg19
(lp3254
I8
aI5
asg21
F0.92878508567810059
sg22
(lp3255
g1298
ag1308
asg26
I1
sg27
I1
sg28
I0
sg29
F1421.3806490898132
sg30
(lp3256
F0.065000000000000002
aF0.20999999999999999
asg32
g1301
sg34
I00
sa(dp3257
g8
(lp3258
I1
aI1
asg10
(lp3259
sg12
I460
sg13
g14
sg15
I2
sg16
I1
sg17
(lp3260
sg19
(lp3261
I14
aI4
asg21
F0.40106892585754395
sg22
(lp3262
g1316
ag1317
asg26
I1
sg27
I1
sg28
I1
sg29
F1424.4501070976257
sg30
(lp3263
F0.57499999999999996
aF0.753
asg32
g1301
sg34
I01
sa(dp3264
g8
(lp3265
I1
aI1
asg10
(lp3266
sg12
I461
sg13
g14
sg15
I2
sg16
I1
sg17
(lp3267
sg19
(lp3268
I14
aI0
asg21
F0.40266680717468262
sg22
(lp3269
g1316
ag1325
asg26
I1
sg27
I1
sg28
I1
sg29
F1427.520761013031
sg30
(lp3270
F0.57499999999999996
aF0.85099999999999998
asg32
g1301
sg34
I01
sa(dp3271
g8
(lp3272
I1
aI1
asg10
(lp3273
sg12
I462
sg13
g14
sg15
I2
sg16
I1
sg17
(lp3274
sg19
(lp3275
I13
aI14
asg21
F0.65111804008483887
sg22
(lp3276
g1347
ag1316
asg26
I1
sg27
I1
sg28
I0
sg29
F1430.5903050899506
sg30
(lp3277
F0.48099999999999998
aF0.57499999999999996
asg32
g1301
sg34
I00
sa(dp3278
g8
(lp3279
I0
aI0
asg10
(lp3280
sg12
I463
sg13
g14
sg15
I2
sg16
I0
sg17
(lp3281
sg19
(lp3282
I8
aI9
asg21
F0.57348799705505371
sg22
(lp3283
g1298
ag1419
asg26
I1
sg27
I1
sg28
I1
sg29
F1433.6602079868317
sg30
(lp3284
F0.065000000000000002
aF0.104
asg32
g1301
sg34
I01
sa(dp3285
g8
(lp3286
I1
aI0
asg10
(lp3287
sg12
I464
sg13
g14
sg15
I2
sg16
I0
sg17
(lp3288
sg19
(lp3289
I0
aI10
asg21
F0.63160920143127441
sg22
(lp3290
g1325
ag1369
asg26
I1
sg27
I0
sg28
I1
sg29
F1436.730565071106
sg30
(lp3291
F0.85099999999999998
aF0.38400000000000001
asg32
g1301
sg34
I00
sa(dp3292
g8
(lp3293
I0
aI0
asg10
(lp3294
sg12
I465
sg13
g14
sg15
I2
sg16
I0
sg17
(lp3295
sg19
(lp3296
I13
aI10
asg21
F0.5538489818572998
sg22
(lp3297
g1347
ag1369
asg26
I1
sg27
I0
sg28
I1
sg29
F1439.8003590106964
sg30
(lp3298
F0.48099999999999998
aF0.38400000000000001
asg32
g1301
sg34
I00
sa(dp3299
g8
(lp3300
I0
aI0
asg10
(lp3301
sg12
I466
sg13
g14
sg15
I2
sg16
I0
sg17
(lp3302
sg19
(lp3303
I10
aI8
asg21
F0.66747403144836426
sg22
(lp3304
g1369
ag1298
asg26
I1
sg27
I0
sg28
I1
sg29
F1442.8701820373535
sg30
(lp3305
F0.38400000000000001
aF0.065000000000000002
asg32
g1301
sg34
I00
sa(dp3306
g8
(lp3307
I1
aI1
asg10
(lp3308
sg12
I467
sg13
g14
sg15
I2
sg16
I1
sg17
(lp3309
sg19
(lp3310
I10
aI3
asg21
F0.78129196166992188
sg22
(lp3311
g1369
ag1299
asg26
I1
sg27
I1
sg28
I0
sg29
F1445.9399650096893
sg30
(lp3312
F0.38400000000000001
aF0.88900000000000001
asg32
g1301
sg34
I00
sa(dp3313
g8
(lp3314
I0
aI0
asg10
(lp3315
sg12
I468
sg13
g14
sg15
I2
sg16
I0
sg17
(lp3316
sg19
(lp3317
I8
aI9
asg21
F0.42264008522033691
sg22
(lp3318
g1298
ag1419
asg26
I1
sg27
I1
sg28
I1
sg29
F1449.0098040103912
sg30
(lp3319
F0.065000000000000002
aF0.104
asg32
g1301
sg34
I01
sa(dp3320
g8
(lp3321
I0
aI1
asg10
(lp3322
sg12
I469
sg13
g14
sg15
I2
sg16
I0
sg17
(lp3323
sg19
(lp3324
I14
aI3
asg21
F0.32299613952636719
sg22
(lp3325
g1316
ag1299
asg26
I1
sg27
I1
sg28
I0
sg29
F1452.0801219940186
sg30
(lp3326
F0.57499999999999996
aF0.88900000000000001
asg32
g1301
sg34
I00
sa(dp3327
g8
(lp3328
I0
aI1
asg10
(lp3329
sg12
I470
sg13
g14
sg15
I2
sg16
I1
sg17
(lp3330
sg19
(lp3331
I13
aI0
asg21
F0.4143669605255127
sg22
(lp3332
g1347
ag1325
asg26
I1
sg27
I1
sg28
I1
sg29
F1455.1500799655914
sg30
(lp3333
F0.48099999999999998
aF0.85099999999999998
asg32
g1301
sg34
I01
sa(dp3334
g8
(lp3335
I1
aI1
asg10
(lp3336
sg12
I471
sg13
g14
sg15
I2
sg16
I1
sg17
(lp3337
sg19
(lp3338
I13
aI5
asg21
F0.42689895629882812
sg22
(lp3339
g1347
ag1308
asg26
I1
sg27
I0
sg28
I1
sg29
F1458.22052693367
sg30
(lp3340
F0.48099999999999998
aF0.20999999999999999
asg32
g1301
sg34
I00
sa(dp3341
g8
(lp3342
I1
aI0
asg10
(lp3343
sg12
I472
sg13
g14
sg15
I2
sg16
I0
sg17
(lp3344
sg19
(lp3345
I14
aI9
asg21
F0.63054180145263672
sg22
(lp3346
g1316
ag1419
asg26
I1
sg27
I0
sg28
I1
sg29
F1461.2902059555054
sg30
(lp3347
F0.57499999999999996
aF0.104
asg32
g1301
sg34
I00
sa(dp3348
g8
(lp3349
I1
aI0
asg10
(lp3350
sg12
I473
sg13
g14
sg15
I2
sg16
I1
sg17
(lp3351
sg19
(lp3352
I0
aI13
asg21
F0.63204407691955566
sg22
(lp3353
g1325
ag1347
asg26
I1
sg27
I0
sg28
I0
sg29
F1464.3599479198456
sg30
(lp3354
F0.85099999999999998
aF0.48099999999999998
asg32
g1301
sg34
I01
sa(dp3355
g8
(lp3356
I0
aI0
asg10
(lp3357
sg12
I474
sg13
g14
sg15
I2
sg16
I0
sg17
(lp3358
sg19
(lp3359
I9
aI14
asg21
F0.75680398941040039
sg22
(lp3360
g1419
ag1316
asg26
I1
sg27
I1
sg28
I0
sg29
F1467.4305880069733
sg30
(lp3361
F0.104
aF0.57499999999999996
asg32
g1301
sg34
I00
sa(dp3362
g8
(lp3363
I1
aI0
asg10
(lp3364
sg12
I475
sg13
g14
sg15
I2
sg16
I1
sg17
(lp3365
sg19
(lp3366
I14
aI10
asg21
F0.62262916564941406
sg22
(lp3367
g1316
ag1369
asg26
I1
sg27
I0
sg28
I0
sg29
F1470.5001759529114
sg30
(lp3368
F0.57499999999999996
aF0.38400000000000001
asg32
g1301
sg34
I01
sa(dp3369
g8
(lp3370
I0
aI1
asg10
(lp3371
sg12
I476
sg13
g14
sg15
I2
sg16
I0
sg17
(lp3372
sg19
(lp3373
I10
aI5
asg21
F0.34341096878051758
sg22
(lp3374
g1369
ag1308
asg26
I1
sg27
I0
sg28
I0
sg29
F1473.5699200630188
sg30
(lp3375
F0.38400000000000001
aF0.20999999999999999
asg32
g1301
sg34
I01
sa(dp3376
g8
(lp3377
I1
aI1
asg10
(lp3378
sg12
I477
sg13
g14
sg15
I2
sg16
I1
sg17
(lp3379
sg19
(lp3380
I3
aI13
asg21
F0.38935017585754395
sg22
(lp3381
g1299
ag1347
asg26
I1
sg27
I0
sg28
I0
sg29
F1476.6401209831238
sg30
(lp3382
F0.88900000000000001
aF0.48099999999999998
asg32
g1301
sg34
I01
sa(dp3383
g8
(lp3384
I0
aI0
asg10
(lp3385
sg12
I478
sg13
g14
sg15
I2
sg16
I0
sg17
(lp3386
sg19
(lp3387
I13
aI8
asg21
F0.45795583724975586
sg22
(lp3388
g1347
ag1298
asg26
I1
sg27
I0
sg28
I1
sg29
F1479.7098560333252
sg30
(lp3389
F0.48099999999999998
aF0.065000000000000002
asg32
g1301
sg34
I00
sa(dp3390
g8
(lp3391
I1
aI0
asg10
(lp3392
sg12
I479
sg13
g14
sg15
I2
sg16
I1
sg17
(lp3393
sg19
(lp3394
I4
aI14
asg21
F0.45935988426208496
sg22
(lp3395
g1317
ag1316
asg26
I1
sg27
I0
sg28
I0
sg29
F1482.7799711227417
sg30
(lp3396
F0.753
aF0.57499999999999996
asg32
g1301
sg34
I01
sa(dp3397
g8
(lp3398
I0
aI1
asg10
(lp3399
sg12
I480
sg13
g14
sg15
I2
sg16
I1
sg17
(lp3400
sg19
(lp3401
I9
aI0
asg21
F0.65251517295837402
sg22
(lp3402
g1419
ag1325
asg26
I1
sg27
I1
sg28
I1
sg29
F1485.8503549098969
sg30
(lp3403
F0.104
aF0.85099999999999998
asg32
g1301
sg34
I01
sa(dp3404
g8
(lp3405
I0
aI1
asg10
(lp3406
sg12
I481
sg13
g14
sg15
I2
sg16
I1
sg17
(lp3407
sg19
(lp3408
I9
aI4
asg21
F0.66456007957458496
sg22
(lp3409
g1419
ag1317
asg26
I1
sg27
I1
sg28
I1
sg29
F1488.9208528995514
sg30
(lp3410
F0.104
aF0.753
asg32
g1301
sg34
I01
sa(dp3411
g8
(lp3412
I1
aI1
asg10
(lp3413
sg12
I482
sg13
g14
sg15
I2
sg16
I1
sg17
(lp3414
sg19
(lp3415
I13
aI3
asg21
F0.49750399589538574
sg22
(lp3416
g1347
ag1299
asg26
I1
sg27
I1
sg28
I1
sg29
F1491.9897100925446
sg30
(lp3417
F0.48099999999999998
aF0.88900000000000001
asg32
g1301
sg34
I01
sa(dp3418
g8
(lp3419
I1
aI0
asg10
(lp3420
sg12
I483
sg13
g14
sg15
I2
sg16
I1
sg17
(lp3421
sg19
(lp3422
I14
aI9
asg21
F1.1733131408691406
sg22
(lp3423
g1316
ag1419
asg26
I1
sg27
I0
sg28
I0
sg29
F1495.0597050189972
sg30
(lp3424
F0.57499999999999996
aF0.104
asg32
g1301
sg34
I01
sa(dp3425
g8
(lp3426
I0
aI0
asg10
(lp3427
sg12
I484
sg13
g14
sg15
I2
sg16
I0
sg17
(lp3428
sg19
(lp3429
I8
aI4
asg21
F0.90503787994384766
sg22
(lp3430
g1298
ag1317
asg26
I1
sg27
I1
sg28
I1
sg29
F1498.1301169395447
sg30
(lp3431
F0.065000000000000002
aF0.753
asg32
g1301
sg34
I01
sa(dp3432
g8
(lp3433
I0
aI1
asg10
(lp3434
sg12
I485
sg13
g14
sg15
I2
sg16
I0
sg17
(lp3435
sg19
(lp3436
I10
aI0
asg21
F0.51213407516479492
sg22
(lp3437
g1369
ag1325
asg26
I1
sg27
I1
sg28
I0
sg29
F1501.2000749111176
sg30
(lp3438
F0.38400000000000001
aF0.85099999999999998
asg32
g1301
sg34
I00
sa(dp3439
g8
(lp3440
I0
aI1
asg10
(lp3441
sg12
I486
sg13
g14
sg15
I2
sg16
I1
sg17
(lp3442
sg19
(lp3443
I9
aI3
asg21
F1.0424790382385254
sg22
(lp3444
g1419
ag1299
asg26
I1
sg27
I1
sg28
I1
sg29
F1504.2695770263672
sg30
(lp3445
F0.104
aF0.88900000000000001
asg32
g1301
sg34
I01
sa(dp3446
g8
(lp3447
I1
aI1
asg10
(lp3448
sg12
I487
sg13
g14
sg15
I2
sg16
I1
sg17
(lp3449
sg19
(lp3450
I0
aI13
asg21
F0.81883597373962402
sg22
(lp3451
g1325
ag1347
asg26
I1
sg27
I0
sg28
I1
sg29
F1507.3396790027618
sg30
(lp3452
F0.85099999999999998
aF0.48099999999999998
asg32
g1301
sg34
I00
sa(dp3453
g8
(lp3454
I1
aI0
asg10
(lp3455
sg12
I488
sg13
g14
sg15
I2
sg16
I1
sg17
(lp3456
sg19
(lp3457
I0
aI8
asg21
F0.52733683586120605
sg22
(lp3458
g1325
ag1298
asg26
I1
sg27
I0
sg28
I0
sg29
F1510.4097490310669
sg30
(lp3459
F0.85099999999999998
aF0.065000000000000002
asg32
g1301
sg34
I01
sa(dp3460
g8
(lp3461
I0
aI0
asg10
(lp3462
sg12
I489
sg13
g14
sg15
I2
sg16
I0
sg17
(lp3463
sg19
(lp3464
I10
aI13
asg21
F0.79936885833740234
sg22
(lp3465
g1369
ag1347
asg26
I1
sg27
I1
sg28
I1
sg29
F1513.4795141220093
sg30
(lp3466
F0.38400000000000001
aF0.48099999999999998
asg32
g1301
sg34
I01
sa(dp3467
g8
(lp3468
I0
aI1
asg10
(lp3469
sg12
I490
sg13
g14
sg15
I2
sg16
I0
sg17
(lp3470
sg19
(lp3471
I9
aI3
asg21
F0.75480508804321289
sg22
(lp3472
g1419
ag1299
asg26
I1
sg27
I1
sg28
I0
sg29
F1516.549654006958
sg30
(lp3473
F0.104
aF0.88900000000000001
asg32
g1301
sg34
I00
sa(dp3474
g8
(lp3475
I0
aI0
asg10
(lp3476
sg12
I491
sg13
g14
sg15
I2
sg16
I0
sg17
(lp3477
sg19
(lp3478
I5
aI4
asg21
F0.65568089485168457
sg22
(lp3479
g1308
ag1317
asg26
I1
sg27
I1
sg28
I1
sg29
F1519.6198270320892
sg30
(lp3480
F0.20999999999999999
aF0.753
asg32
g1301
sg34
I01
sa(dp3481
g8
(lp3482
I0
aI1
asg10
(lp3483
sg12
I492
sg13
g14
sg15
I2
sg16
I1
sg17
(lp3484
sg19
(lp3485
I10
aI0
asg21
F0.51041412353515625
sg22
(lp3486
g1369
ag1325
asg26
I1
sg27
I1
sg28
I1
sg29
F1522.6897270679474
sg30
(lp3487
F0.38400000000000001
aF0.85099999999999998
asg32
g1301
sg34
I01
sa(dp3488
g8
(lp3489
I1
aI0
asg10
(lp3490
sg12
I493
sg13
g14
sg15
I2
sg16
I0
sg17
(lp3491
sg19
(lp3492
I14
aI5
asg21
F0.98433279991149902
sg22
(lp3493
g1316
ag1308
asg26
I1
sg27
I0
sg28
I1
sg29
F1525.7595798969269
sg30
(lp3494
F0.57499999999999996
aF0.20999999999999999
asg32
g1301
sg34
I00
sa(dp3495
g8
(lp3496
I0
aI1
asg10
(lp3497
sg12
I494
sg13
g14
sg15
I2
sg16
I1
sg17
(lp3498
sg19
(lp3499
I8
aI9
asg21
F0.77171087265014648
sg22
(lp3500
g1298
ag1419
asg26
I1
sg27
I1
sg28
I1
sg29
F1528.8295869827271
sg30
(lp3501
F0.065000000000000002
aF0.104
asg32
g1301
sg34
I01
sa(dp3502
g8
(lp3503
I0
aI0
asg10
(lp3504
sg12
I495
sg13
g14
sg15
I2
sg16
I0
sg17
(lp3505
sg19
(lp3506
I13
aI5
asg21
F0.51448893547058105
sg22
(lp3507
g1347
ag1308
asg26
I1
sg27
I0
sg28
I0
sg29
F1531.8993620872498
sg30
(lp3508
F0.48099999999999998
aF0.20999999999999999
asg32
g1301
sg34
I01
sa(dp3509
g8
(lp3510
I1
aI1
asg10
(lp3511
sg12
I496
sg13
g14
sg15
I2
sg16
I1
sg17
(lp3512
sg19
(lp3513
I14
aI0
asg21
F0.35794305801391602
sg22
(lp3514
g1316
ag1325
asg26
I1
sg27
I1
sg28
I1
sg29
F1534.9692769050598
sg30
(lp3515
F0.57499999999999996
aF0.85099999999999998
asg32
g1301
sg34
I01
sa(dp3516
g8
(lp3517
I0
aI1
asg10
(lp3518
sg12
I497
sg13
g14
sg15
I2
sg16
I1
sg17
(lp3519
sg19
(lp3520
I13
aI10
asg21
F0.59560108184814453
sg22
(lp3521
g1347
ag1369
asg26
I1
sg27
I0
sg28
I1
sg29
F1538.0392339229584
sg30
(lp3522
F0.48099999999999998
aF0.38400000000000001
asg32
g1301
sg34
I00
sa(dp3523
g8
(lp3524
I0
aI0
asg10
(lp3525
sg12
I498
sg13
g14
sg15
I2
sg16
I0
sg17
(lp3526
sg19
(lp3527
I9
aI8
asg21
F0.50675106048583984
sg22
(lp3528
g1419
ag1298
asg26
I1
sg27
I0
sg28
I0
sg29
F1541.1095650196075
sg30
(lp3529
F0.104
aF0.065000000000000002
asg32
g1301
sg34
I01
sa(dp3530
g8
(lp3531
I1
aI0
asg10
(lp3532
sg12
I499
sg13
g14
sg15
I2
sg16
I0
sg17
(lp3533
sg19
(lp3534
I3
aI8
asg21
F0.35093498229980469
sg22
(lp3535
g1299
ag1298
asg26
I1
sg27
I0
sg28
I1
sg29
F1544.179160118103
sg30
(lp3536
F0.88900000000000001
aF0.065000000000000002
asg32
g1301
sg34
I00
sa(dp3537
g8
(lp3538
I0
aI1
asg10
(lp3539
sg12
I500
sg13
g14
sg15
I2
sg16
I0
sg17
(lp3540
sg19
(lp3541
I8
aI9
asg21
F1.2296428680419922
sg22
(lp3542
g1298
ag1419
asg26
I1
sg27
I1
sg28
I0
sg29
F1547.2491879463196
sg30
(lp3543
F0.065000000000000002
aF0.104
asg32
g1301
sg34
I00
sa(dp3544
g8
(lp3545
I0
aI1
asg10
(lp3546
sg12
I501
sg13
g14
sg15
I2
sg16
I1
sg17
(lp3547
sg19
(lp3548
I8
aI4
asg21
F1.0172078609466553
sg22
(lp3549
g1298
ag1317
asg26
I1
sg27
I1
sg28
I1
sg29
F1550.3203320503235
sg30
(lp3550
F0.065000000000000002
aF0.753
asg32
g1301
sg34
I01
sa(dp3551
g8
(lp3552
I0
aI1
asg10
(lp3553
sg12
I502
sg13
g14
sg15
I2
sg16
I1
sg17
(lp3554
sg19
(lp3555
I14
aI3
asg21
F1.8957710266113281
sg22
(lp3556
g1316
ag1299
asg26
I1
sg27
I1
sg28
I1
sg29
F1553.3891820907593
sg30
(lp3557
F0.57499999999999996
aF0.88900000000000001
asg32
g1301
sg34
I01
sa(dp3558
g8
(lp3559
I0
aI1
asg10
(lp3560
sg12
I503
sg13
g14
sg15
I2
sg16
I1
sg17
(lp3561
sg19
(lp3562
I9
aI3
asg21
F0.62608599662780762
sg22
(lp3563
g1419
ag1299
asg26
I1
sg27
I1
sg28
I1
sg29
F1556.4593210220337
sg30
(lp3564
F0.104
aF0.88900000000000001
asg32
g1301
sg34
I01
sa(dp3565
g8
(lp3566
I0
aI0
asg10
(lp3567
sg12
I504
sg13
g14
sg15
I2
sg16
I0
sg17
(lp3568
sg19
(lp3569
I9
aI5
asg21
F0.91958498954772949
sg22
(lp3570
g1419
ag1308
asg26
I1
sg27
I1
sg28
I1
sg29
F1559.5299711227417
sg30
(lp3571
F0.104
aF0.20999999999999999
asg32
g1301
sg34
I01
sa(dp3572
g8
(lp3573
I0
aI1
asg10
(lp3574
sg12
I505
sg13
g14
sg15
I2
sg16
I1
sg17
(lp3575
sg19
(lp3576
I14
aI4
asg21
F0.61771798133850098
sg22
(lp3577
g1316
ag1317
asg26
I1
sg27
I1
sg28
I1
sg29
F1562.598886013031
sg30
(lp3578
F0.57499999999999996
aF0.753
asg32
g1301
sg34
I01
sa(dp3579
g8
(lp3580
I1
aI0
asg10
(lp3581
sg12
I506
sg13
g14
sg15
I2
sg16
I1
sg17
(lp3582
sg19
(lp3583
I14
aI8
asg21
F1.21486496925354
sg22
(lp3584
g1316
ag1298
asg26
I1
sg27
I0
sg28
I0
sg29
F1565.6690340042114
sg30
(lp3585
F0.57499999999999996
aF0.065000000000000002
asg32
g1301
sg34
I01
sa(dp3586
g8
(lp3587
I1
aI0
asg10
(lp3588
sg12
I507
sg13
g14
sg15
I2
sg16
I0
sg17
(lp3589
sg19
(lp3590
I5
aI9
asg21
F1.0134382247924805
sg22
(lp3591
g1308
ag1419
asg26
I1
sg27
I0
sg28
I1
sg29
F1568.7396109104156
sg30
(lp3592
F0.20999999999999999
aF0.104
asg32
g1301
sg34
I00
sa(dp3593
g8
(lp3594
I0
aI1
asg10
(lp3595
sg12
I508
sg13
g14
sg15
I2
sg16
I0
sg17
(lp3596
sg19
(lp3597
I10
aI5
asg21
F1.3525509834289551
sg22
(lp3598
g1369
ag1308
asg26
I1
sg27
I0
sg28
I0
sg29
F1571.8093190193176
sg30
(lp3599
F0.38400000000000001
aF0.20999999999999999
asg32
g1301
sg34
I01
sa(dp3600
g8
(lp3601
I1
aI1
asg10
(lp3602
sg12
I509
sg13
g14
sg15
I2
sg16
I1
sg17
(lp3603
sg19
(lp3604
I0
aI3
asg21
F1.6461899280548096
sg22
(lp3605
g1325
ag1299
asg26
I1
sg27
I1
sg28
I1
sg29
F1574.8788220882416
sg30
(lp3606
F0.85099999999999998
aF0.88900000000000001
asg32
g1301
sg34
I01
sa(dp3607
g8
(lp3608
I1
aI1
asg10
(lp3609
sg12
I510
sg13
g14
sg15
I2
sg16
I1
sg17
(lp3610
sg19
(lp3611
I14
aI0
asg21
F1.0851078033447266
sg22
(lp3612
g1316
ag1325
asg26
I1
sg27
I1
sg28
I1
sg29
F1577.9489779472351
sg30
(lp3613
F0.57499999999999996
aF0.85099999999999998
asg32
g1301
sg34
I01
sa(dp3614
g8
(lp3615
I0
aI1
asg10
(lp3616
sg12
I511
sg13
g14
sg15
I2
sg16
I0
sg17
(lp3617
sg19
(lp3618
I13
aI5
asg21
F1.3337488174438477
sg22
(lp3619
g1347
ag1308
asg26
I1
sg27
I0
sg28
I0
sg29
F1581.0187880992889
sg30
(lp3620
F0.48099999999999998
aF0.20999999999999999
asg32
g1301
sg34
I01
sa(dp3621
g8
(lp3622
I1
aI1
asg10
(lp3623
sg12
I512
sg13
g14
sg15
I2
sg16
I1
sg17
(lp3624
sg19
(lp3625
I4
aI3
asg21
F0.88525891304016113
sg22
(lp3626
g1317
ag1299
asg26
I1
sg27
I1
sg28
I0
sg29
F1584.0890109539032
sg30
(lp3627
F0.753
aF0.88900000000000001
asg32
g1301
sg34
I00
sa(dp3628
g8
(lp3629
I0
aI1
asg10
(lp3630
sg12
I513
sg13
g14
sg15
I2
sg16
I1
sg17
(lp3631
sg19
(lp3632
I8
aI3
asg21
F0.76265406608581543
sg22
(lp3633
g1298
ag1299
asg26
I1
sg27
I1
sg28
I1
sg29
F1587.1589169502258
sg30
(lp3634
F0.065000000000000002
aF0.88900000000000001
asg32
g1301
sg34
I01
sa(dp3635
g8
(lp3636
I0
aI1
asg10
(lp3637
sg12
I514
sg13
g14
sg15
I2
sg16
I1
sg17
(lp3638
sg19
(lp3639
I5
aI3
asg21
F0.88804101943969727
sg22
(lp3640
g1308
ag1299
asg26
I1
sg27
I1
sg28
I1
sg29
F1590.2290089130402
sg30
(lp3641
F0.20999999999999999
aF0.88900000000000001
asg32
g1301
sg34
I01
sa(dp3642
g8
(lp3643
I0
aI0
asg10
(lp3644
sg12
I515
sg13
g14
sg15
I2
sg16
I0
sg17
(lp3645
sg19
(lp3646
I8
aI13
asg21
F0.70920896530151367
sg22
(lp3647
g1298
ag1347
asg26
I1
sg27
I1
sg28
I1
sg29
F1593.2987170219421
sg30
(lp3648
F0.065000000000000002
aF0.48099999999999998
asg32
g1301
sg34
I01
sa(dp3649
g8
(lp3650
I0
aI1
asg10
(lp3651
sg12
I516
sg13
g14
sg15
I2
sg16
I1
sg17
(lp3652
sg19
(lp3653
I13
aI4
asg21
F0.77772402763366699
sg22
(lp3654
g1347
ag1317
asg26
I1
sg27
I1
sg28
I1
sg29
F1596.368842124939
sg30
(lp3655
F0.48099999999999998
aF0.753
asg32
g1301
sg34
I01
sa(dp3656
g8
(lp3657
I1
aI0
asg10
(lp3658
sg12
I517
sg13
g14
sg15
I2
sg16
I1
sg17
(lp3659
sg19
(lp3660
I4
aI8
asg21
F0.84643888473510742
sg22
(lp3661
g1317
ag1298
asg26
I1
sg27
I0
sg28
I0
sg29
F1599.4391589164734
sg30
(lp3662
F0.753
aF0.065000000000000002
asg32
g1301
sg34
I01
sa(dp3663
g8
(lp3664
I0
aI1
asg10
(lp3665
sg12
I518
sg13
g14
sg15
I2
sg16
I0
sg17
(lp3666
sg19
(lp3667
I10
aI14
asg21
F0.74662303924560547
sg22
(lp3668
g1369
ag1316
asg26
I1
sg27
I1
sg28
I0
sg29
F1602.5085909366608
sg30
(lp3669
F0.38400000000000001
aF0.57499999999999996
asg32
g1301
sg34
I00
sa(dp3670
g8
(lp3671
I1
aI1
asg10
(lp3672
sg12
I519
sg13
g14
sg15
I2
sg16
I1
sg17
(lp3673
sg19
(lp3674
I0
aI4
asg21
F0.81560111045837402
sg22
(lp3675
g1325
ag1317
asg26
I1
sg27
I0
sg28
I1
sg29
F1605.5787789821625
sg30
(lp3676
F0.85099999999999998
aF0.753
asg32
g1301
sg34
I00
sa(dp3677
g8
(lp3678
I0
aI1
asg10
(lp3679
sg12
I520
sg13
g14
sg15
I2
sg16
I1
sg17
(lp3680
sg19
(lp3681
I8
aI10
asg21
F0.60297298431396484
sg22
(lp3682
g1298
ag1369
asg26
I1
sg27
I1
sg28
I1
sg29
F1608.6497421264648
sg30
(lp3683
F0.065000000000000002
aF0.38400000000000001
asg32
g1301
sg34
I01
sa(dp3684
g8
(lp3685
I0
aI0
asg10
(lp3686
sg12
I521
sg13
g14
sg15
I2
sg16
I0
sg17
(lp3687
sg19
(lp3688
I13
aI5
asg21
F0.51425004005432129
sg22
(lp3689
g1347
ag1308
asg26
I1
sg27
I0
sg28
I1
sg29
F1611.718729019165
sg30
(lp3690
F0.48099999999999998
aF0.20999999999999999
asg32
g1301
sg34
I00
sa(dp3691
g8
(lp3692
I0
aI0
asg10
(lp3693
sg12
I522
sg13
g14
sg15
I2
sg16
I0
sg17
(lp3694
sg19
(lp3695
I8
aI4
asg21
F0.5268700122833252
sg22
(lp3696
g1298
ag1317
asg26
I1
sg27
I1
sg28
I1
sg29
F1614.7884991168976
sg30
(lp3697
F0.065000000000000002
aF0.753
asg32
g1301
sg34
I01
sa(dp3698
g8
(lp3699
I1
aI0
asg10
(lp3700
sg12
I523
sg13
g14
sg15
I2
sg16
I1
sg17
(lp3701
sg19
(lp3702
I13
aI14
asg21
F0.35947513580322266
sg22
(lp3703
g1347
ag1316
asg26
I1
sg27
I1
sg28
I0
sg29
F1617.85853099823
sg30
(lp3704
F0.48099999999999998
aF0.57499999999999996
asg32
g1301
sg34
I00
sa(dp3705
g8
(lp3706
I0
aI0
asg10
(lp3707
sg12
I524
sg13
g14
sg15
I2
sg16
I0
sg17
(lp3708
sg19
(lp3709
I5
aI8
asg21
F0.48406219482421875
sg22
(lp3710
g1308
ag1298
asg26
I1
sg27
I0
sg28
I1
sg29
F1620.9286580085754
sg30
(lp3711
F0.20999999999999999
aF0.065000000000000002
asg32
g1301
sg34
I00
sa(dp3712
g8
(lp3713
I0
aI1
asg10
(lp3714
sg12
I525
sg13
g14
sg15
I2
sg16
I0
sg17
(lp3715
sg19
(lp3716
I4
aI14
asg21
F0.58746504783630371
sg22
(lp3717
g1317
ag1316
asg26
I1
sg27
I0
sg28
I0
sg29
F1623.9986760616302
sg30
(lp3718
F0.753
aF0.57499999999999996
asg32
g1301
sg34
I01
sa(dp3719
g8
(lp3720
I0
aI1
asg10
(lp3721
sg12
I526
sg13
g14
sg15
I2
sg16
I0
sg17
(lp3722
sg19
(lp3723
I5
aI3
asg21
F0.8020789623260498
sg22
(lp3724
g1308
ag1299
asg26
I1
sg27
I1
sg28
I0
sg29
F1627.0690639019012
sg30
(lp3725
F0.20999999999999999
aF0.88900000000000001
asg32
g1301
sg34
I00
sa(dp3726
g8
(lp3727
I0
aI1
asg10
(lp3728
sg12
I527
sg13
g14
sg15
I2
sg16
I0
sg17
(lp3729
sg19
(lp3730
I5
aI14
asg21
F0.36480212211608887
sg22
(lp3731
g1308
ag1316
asg26
I1
sg27
I1
sg28
I0
sg29
F1630.1387140750885
sg30
(lp3732
F0.20999999999999999
aF0.57499999999999996
asg32
g1301
sg34
I00
sa(dp3733
g8
(lp3734
I0
aI0
asg10
(lp3735
sg12
I528
sg13
g14
sg15
I2
sg16
I0
sg17
(lp3736
sg19
(lp3737
I8
aI14
asg21
F0.45638394355773926
sg22
(lp3738
g1298
ag1316
asg26
I1
sg27
I1
sg28
I0
sg29
F1633.2082951068878
sg30
(lp3739
F0.065000000000000002
aF0.57499999999999996
asg32
g1301
sg34
I00
sa(dp3740
g8
(lp3741
I1
aI1
asg10
(lp3742
sg12
I529
sg13
g14
sg15
I2
sg16
I1
sg17
(lp3743
sg19
(lp3744
I0
aI3
asg21
F0.37868213653564453
sg22
(lp3745
g1325
ag1299
asg26
I1
sg27
I1
sg28
I1
sg29
F1636.2782740592957
sg30
(lp3746
F0.85099999999999998
aF0.88900000000000001
asg32
g1301
sg34
I01
sa(dp3747
g8
(lp3748
I0
aI0
asg10
(lp3749
sg12
I530
sg13
g14
sg15
I2
sg16
I0
sg17
(lp3750
sg19
(lp3751
I8
aI5
asg21
F0.89735102653503418
sg22
(lp3752
g1298
ag1308
asg26
I1
sg27
I1
sg28
I1
sg29
F1639.3488659858704
sg30
(lp3753
F0.065000000000000002
aF0.20999999999999999
asg32
g1301
sg34
I01
sa(dp3754
g8
(lp3755
I1
aI0
asg10
(lp3756
sg12
I531
sg13
g14
sg15
I2
sg16
I1
sg17
(lp3757
sg19
(lp3758
I3
aI10
asg21
F0.51648402214050293
sg22
(lp3759
g1299
ag1369
asg26
I1
sg27
I0
sg28
I0
sg29
F1642.4185700416565
sg30
(lp3760
F0.88900000000000001
aF0.38400000000000001
asg32
g1301
sg34
I01
sa(dp3761
g8
(lp3762
I0
aI0
asg10
(lp3763
sg12
I532
sg13
g14
sg15
I2
sg16
I0
sg17
(lp3764
sg19
(lp3765
I8
aI9
asg21
F0.39395999908447266
sg22
(lp3766
g1298
ag1419
asg26
I1
sg27
I1
sg28
I0
sg29
F1645.4883110523224
sg30
(lp3767
F0.065000000000000002
aF0.104
asg32
g1301
sg34
I00
sa(dp3768
g8
(lp3769
I0
aI0
asg10
(lp3770
sg12
I533
sg13
g14
sg15
I2
sg16
I0
sg17
(lp3771
sg19
(lp3772
I9
aI8
asg21
F1.126446008682251
sg22
(lp3773
g1419
ag1298
asg26
I1
sg27
I0
sg28
I0
sg29
F1648.5585241317749
sg30
(lp3774
F0.104
aF0.065000000000000002
asg32
g1301
sg34
I01
sa(dp3775
g8
(lp3776
I0
aI0
asg10
(lp3777
sg12
I534
sg13
g14
sg15
I2
sg16
I0
sg17
(lp3778
sg19
(lp3779
I4
aI13
asg21
F0.69999289512634277
sg22
(lp3780
g1317
ag1347
asg26
I1
sg27
I0
sg28
I1
sg29
F1651.6281409263611
sg30
(lp3781
F0.753
aF0.48099999999999998
asg32
g1301
sg34
I00
sa(dp3782
g8
(lp3783
I1
aI1
asg10
(lp3784
sg12
I535
sg13
g14
sg15
I2
sg16
I1
sg17
(lp3785
sg19
(lp3786
I10
aI4
asg21
F0.48785901069641113
sg22
(lp3787
g1369
ag1317
asg26
I1
sg27
I1
sg28
I1
sg29
F1654.6979629993439
sg30
(lp3788
F0.38400000000000001
aF0.753
asg32
g1301
sg34
I01
sa(dp3789
g8
(lp3790
I1
aI1
asg10
(lp3791
sg12
I536
sg13
g14
sg15
I2
sg16
I1
sg17
(lp3792
sg19
(lp3793
I14
aI4
asg21
F0.63530492782592773
sg22
(lp3794
g1316
ag1317
asg26
I1
sg27
I1
sg28
I1
sg29
F1657.7682130336761
sg30
(lp3795
F0.57499999999999996
aF0.753
asg32
g1301
sg34
I01
sa(dp3796
g8
(lp3797
I1
aI1
asg10
(lp3798
sg12
I537
sg13
g14
sg15
I2
sg16
I1
sg17
(lp3799
sg19
(lp3800
I4
aI13
asg21
F0.49011683464050293
sg22
(lp3801
g1317
ag1347
asg26
I1
sg27
I0
sg28
I0
sg29
F1660.8383319377899
sg30
(lp3802
F0.753
aF0.48099999999999998
asg32
g1301
sg34
I01
sa(dp3803
g8
(lp3804
I0
aI1
asg10
(lp3805
sg12
I538
sg13
g14
sg15
I2
sg16
I1
sg17
(lp3806
sg19
(lp3807
I5
aI0
asg21
F0.77310705184936523
sg22
(lp3808
g1308
ag1325
asg26
I1
sg27
I1
sg28
I1
sg29
F1663.9082970619202
sg30
(lp3809
F0.20999999999999999
aF0.85099999999999998
asg32
g1301
sg34
I01
sa(dp3810
g8
(lp3811
I1
aI1
asg10
(lp3812
sg12
I539
sg13
g14
sg15
I2
sg16
I1
sg17
(lp3813
sg19
(lp3814
I0
aI14
asg21
F0.85307908058166504
sg22
(lp3815
g1325
ag1316
asg26
I1
sg27
I0
sg28
I0
sg29
F1666.9780230522156
sg30
(lp3816
F0.85099999999999998
aF0.57499999999999996
asg32
g1301
sg34
I01
sa(dp3817
g8
(lp3818
I1
aI1
asg10
(lp3819
sg12
I540
sg13
g14
sg15
I2
sg16
I1
sg17
(lp3820
sg19
(lp3821
I5
aI10
asg21
F0.7759859561920166
sg22
(lp3822
g1308
ag1369
asg26
I1
sg27
I1
sg28
I1
sg29
F1670.0482981204987
sg30
(lp3823
F0.20999999999999999
aF0.38400000000000001
asg32
g1301
sg34
I01
sa(dp3824
g8
(lp3825
I1
aI0
asg10
(lp3826
sg12
I541
sg13
g14
sg15
I2
sg16
I0
sg17
(lp3827
sg19
(lp3828
I3
aI5
asg21
F0.6644439697265625
sg22
(lp3829
g1299
ag1308
asg26
I1
sg27
I0
sg28
I1
sg29
F1673.1181750297546
sg30
(lp3830
F0.88900000000000001
aF0.20999999999999999
asg32
g1301
sg34
I00
sa(dp3831
g8
(lp3832
I1
aI0
asg10
(lp3833
sg12
I542
sg13
g14
sg15
I2
sg16
I0
sg17
(lp3834
sg19
(lp3835
I4
aI5
asg21
F0.75532197952270508
sg22
(lp3836
g1317
ag1308
asg26
I1
sg27
I0
sg28
I1
sg29
F1676.1881699562073
sg30
(lp3837
F0.753
aF0.20999999999999999
asg32
g1301
sg34
I00
sa(dp3838
g8
(lp3839
I0
aI0
asg10
(lp3840
sg12
I543
sg13
g14
sg15
I2
sg16
I0
sg17
(lp3841
sg19
(lp3842
I9
aI8
asg21
F0.56580996513366699
sg22
(lp3843
g1419
ag1298
asg26
I1
sg27
I0
sg28
I1
sg29
F1679.2579479217529
sg30
(lp3844
F0.104
aF0.065000000000000002
asg32
g1301
sg34
I00
sa(dp3845
g8
(lp3846
I1
aI0
asg10
(lp3847
sg12
I544
sg13
g14
sg15
I2
sg16
I0
sg17
(lp3848
sg19
(lp3849
I3
aI4
asg21
F0.75805997848510742
sg22
(lp3850
g1299
ag1317
asg26
I1
sg27
I0
sg28
I1
sg29
F1682.3278930187225
sg30
(lp3851
F0.88900000000000001
aF0.753
asg32
g1301
sg34
I00
sa(dp3852
g8
(lp3853
I0
aI1
asg10
(lp3854
sg12
I545
sg13
g14
sg15
I2
sg16
I0
sg17
(lp3855
sg19
(lp3856
I9
aI13
asg21
F0.36600708961486816
sg22
(lp3857
g1419
ag1347
asg26
I1
sg27
I1
sg28
I0
sg29
F1685.3980400562286
sg30
(lp3858
F0.104
aF0.48099999999999998
asg32
g1301
sg34
I00
sa(dp3859
g8
(lp3860
I0
aI0
asg10
(lp3861
sg12
I546
sg13
g14
sg15
I2
sg16
I0
sg17
(lp3862
sg19
(lp3863
I10
aI13
asg21
F0.37836813926696777
sg22
(lp3864
g1369
ag1347
asg26
I1
sg27
I1
sg28
I1
sg29
F1688.4681620597839
sg30
(lp3865
F0.38400000000000001
aF0.48099999999999998
asg32
g1301
sg34
I01
sa(dp3866
g8
(lp3867
I1
aI0
asg10
(lp3868
sg12
I547
sg13
g14
sg15
I2
sg16
I0
sg17
(lp3869
sg19
(lp3870
I8
aI10
asg21
F0.8180689811706543
sg22
(lp3871
g1298
ag1369
asg26
I1
sg27
I1
sg28
I1
sg29
F1691.5380299091339
sg30
(lp3872
F0.065000000000000002
aF0.38400000000000001
asg32
g1301
sg34
I01
sa(dp3873
g8
(lp3874
I0
aI1
asg10
(lp3875
sg12
I548
sg13
g14
sg15
I2
sg16
I0
sg17
(lp3876
sg19
(lp3877
I9
aI13
asg21
F0.28009700775146484
sg22
(lp3878
g1419
ag1347
asg26
I1
sg27
I1
sg28
I0
sg29
F1694.6078929901123
sg30
(lp3879
F0.104
aF0.48099999999999998
asg32
g1301
sg34
I00
sa(dp3880
g8
(lp3881
I1
aI1
asg10
(lp3882
sg12
I549
sg13
g14
sg15
I2
sg16
I1
sg17
(lp3883
sg19
(lp3884
I14
aI13
asg21
F0.50613903999328613
sg22
(lp3885
g1316
ag1347
asg26
I1
sg27
I0
sg28
I1
sg29
F1697.6778779029846
sg30
(lp3886
F0.57499999999999996
aF0.48099999999999998
asg32
g1301
sg34
I00
sa(dp3887
g8
(lp3888
I1
aI1
asg10
(lp3889
sg12
I550
sg13
g14
sg15
I2
sg16
I1
sg17
(lp3890
sg19
(lp3891
I3
aI4
asg21
F0.43991184234619141
sg22
(lp3892
g1299
ag1317
asg26
I1
sg27
I0
sg28
I1
sg29
F1700.7482080459595
sg30
(lp3893
F0.88900000000000001
aF0.753
asg32
g1301
sg34
I00
sa(dp3894
g8
(lp3895
I0
aI1
asg10
(lp3896
sg12
I551
sg13
g14
sg15
I2
sg16
I1
sg17
(lp3897
sg19
(lp3898
I13
aI4
asg21
F0.81224799156188965
sg22
(lp3899
g1347
ag1317
asg26
I1
sg27
I1
sg28
I1
sg29
F1703.8179030418396
sg30
(lp3900
F0.48099999999999998
aF0.753
asg32
g1301
sg34
I01
sa(dp3901
g8
(lp3902
I1
aI0
asg10
(lp3903
sg12
I552
sg13
g14
sg15
I2
sg16
I1
sg17
(lp3904
sg19
(lp3905
I14
aI13
asg21
F0.9261469841003418
sg22
(lp3906
g1316
ag1347
asg26
I1
sg27
I0
sg28
I0
sg29
F1706.8877620697021
sg30
(lp3907
F0.57499999999999996
aF0.48099999999999998
asg32
g1301
sg34
I01
sa(dp3908
g8
(lp3909
I1
aI0
asg10
(lp3910
sg12
I553
sg13
g14
sg15
I2
sg16
I0
sg17
(lp3911
sg19
(lp3912
I5
aI10
asg21
F0.61261200904846191
sg22
(lp3913
g1308
ag1369
asg26
I1
sg27
I1
sg28
I1
sg29
F1709.9580230712891
sg30
(lp3914
F0.20999999999999999
aF0.38400000000000001
asg32
g1301
sg34
I01
sa(dp3915
g8
(lp3916
I0
aI0
asg10
(lp3917
sg12
I554
sg13
g14
sg15
I2
sg16
I0
sg17
(lp3918
sg19
(lp3919
I10
aI9
asg21
F0.48998594284057617
sg22
(lp3920
g1369
ag1419
asg26
I1
sg27
I0
sg28
I1
sg29
F1713.0277769565582
sg30
(lp3921
F0.38400000000000001
aF0.104
asg32
g1301
sg34
I00
sa(dp3922
g8
(lp3923
I0
aI1
asg10
(lp3924
sg12
I555
sg13
g14
sg15
I2
sg16
I1
sg17
(lp3925
sg19
(lp3926
I0
aI3
asg21
F0.5700531005859375
sg22
(lp3927
g1325
ag1299
asg26
I1
sg27
I1
sg28
I1
sg29
F1716.0977139472961
sg30
(lp3928
F0.85099999999999998
aF0.88900000000000001
asg32
g1301
sg34
I01
sa(dp3929
g8
(lp3930
I1
aI1
asg10
(lp3931
sg12
I556
sg13
g14
sg15
I2
sg16
I1
sg17
(lp3932
sg19
(lp3933
I4
aI3
asg21
F0.47040295600891113
sg22
(lp3934
g1317
ag1299
asg26
I1
sg27
I1
sg28
I1
sg29
F1719.1682629585266
sg30
(lp3935
F0.753
aF0.88900000000000001
asg32
g1301
sg34
I01
sa(dp3936
g8
(lp3937
I1
aI0
asg10
(lp3938
sg12
I557
sg13
g14
sg15
I2
sg16
I0
sg17
(lp3939
sg19
(lp3940
I4
aI10
asg21
F0.5837409496307373
sg22
(lp3941
g1317
ag1369
asg26
I1
sg27
I0
sg28
I1
sg29
F1722.2377660274506
sg30
(lp3942
F0.753
aF0.38400000000000001
asg32
g1301
sg34
I00
sa(dp3943
g8
(lp3944
I0
aI1
asg10
(lp3945
sg12
I558
sg13
g14
sg15
I2
sg16
I1
sg17
(lp3946
sg19
(lp3947
I5
aI13
asg21
F0.50673294067382812
sg22
(lp3948
g1308
ag1347
asg26
I1
sg27
I1
sg28
I1
sg29
F1725.3076200485229
sg30
(lp3949
F0.20999999999999999
aF0.48099999999999998
asg32
g1301
sg34
I01
sa(dp3950
g8
(lp3951
I0
aI1
asg10
(lp3952
sg12
I559
sg13
g14
sg15
I2
sg16
I1
sg17
(lp3953
sg19
(lp3954
I8
aI0
asg21
F0.46298789978027344
sg22
(lp3955
g1298
ag1325
asg26
I1
sg27
I1
sg28
I1
sg29
F1728.3782501220703
sg30
(lp3956
F0.065000000000000002
aF0.85099999999999998
asg32
g1301
sg34
I01
sa(dp3957
g8
(lp3958
I1
aI1
asg10
(lp3959
sg12
I560
sg13
g14
sg15
I2
sg16
I1
sg17
(lp3960
sg19
(lp3961
I3
aI13
asg21
F0.56553006172180176
sg22
(lp3962
g1299
ag1347
asg26
I1
sg27
I0
sg28
I0
sg29
F1731.447662115097
sg30
(lp3963
F0.88900000000000001
aF0.48099999999999998
asg32
g1301
sg34
I01
sa(dp3964
g8
(lp3965
I1
aI1
asg10
(lp3966
sg12
I561
sg13
g14
sg15
I2
sg16
I1
sg17
(lp3967
sg19
(lp3968
I3
aI0
asg21
F0.9492030143737793
sg22
(lp3969
g1299
ag1325
asg26
I1
sg27
I0
sg28
I1
sg29
F1734.5178220272064
sg30
(lp3970
F0.88900000000000001
aF0.85099999999999998
asg32
g1301
sg34
I00
sa(dp3971
g8
(lp3972
I1
aI0
asg10
(lp3973
sg12
I562
sg13
g14
sg15
I2
sg16
I0
sg17
(lp3974
sg19
(lp3975
I4
aI10
asg21
F0.42216610908508301
sg22
(lp3976
g1317
ag1369
asg26
I1
sg27
I0
sg28
I1
sg29
F1737.5873410701752
sg30
(lp3977
F0.753
aF0.38400000000000001
asg32
g1301
sg34
I00
sa(dp3978
g8
(lp3979
I1
aI0
asg10
(lp3980
sg12
I563
sg13
g14
sg15
I2
sg16
I1
sg17
(lp3981
sg19
(lp3982
I4
aI5
asg21
F0.91839289665222168
sg22
(lp3983
g1317
ag1308
asg26
I1
sg27
I0
sg28
I0
sg29
F1740.657534122467
sg30
(lp3984
F0.753
aF0.20999999999999999
asg32
g1301
sg34
I01
sa(dp3985
g8
(lp3986
I0
aI1
asg10
(lp3987
sg12
I564
sg13
g14
sg15
I2
sg16
I0
sg17
(lp3988
sg19
(lp3989
I0
aI14
asg21
F0.43567013740539551
sg22
(lp3990
g1325
ag1316
asg26
I1
sg27
I0
sg28
I0
sg29
F1743.7272770404816
sg30
(lp3991
F0.85099999999999998
aF0.57499999999999996
asg32
g1301
sg34
I01
sa(dp3992
g8
(lp3993
I0
aI0
asg10
(lp3994
sg12
I565
sg13
g14
sg15
I2
sg16
I0
sg17
(lp3995
sg19
(lp3996
I8
aI10
asg21
F0.44810891151428223
sg22
(lp3997
g1298
ag1369
asg26
I1
sg27
I1
sg28
I1
sg29
F1746.7973439693451
sg30
(lp3998
F0.065000000000000002
aF0.38400000000000001
asg32
g1301
sg34
I01
sa(dp3999
g8
(lp4000
I0
aI1
asg10
(lp4001
sg12
I566
sg13
g14
sg15
I2
sg16
I1
sg17
(lp4002
sg19
(lp4003
I8
aI14
asg21
F0.60753178596496582
sg22
(lp4004
g1298
ag1316
asg26
I1
sg27
I1
sg28
I1
sg29
F1749.8676369190216
sg30
(lp4005
F0.065000000000000002
aF0.57499999999999996
asg32
g1301
sg34
I01
sa(dp4006
g8
(lp4007
I1
aI0
asg10
(lp4008
sg12
I567
sg13
g14
sg15
I2
sg16
I0
sg17
(lp4009
sg19
(lp4010
I3
aI5
asg21
F0.96787500381469727
sg22
(lp4011
g1299
ag1308
asg26
I1
sg27
I0
sg28
I1
sg29
F1752.9373059272766
sg30
(lp4012
F0.88900000000000001
aF0.20999999999999999
asg32
g1301
sg34
I00
sa(dp4013
g8
(lp4014
I1
aI1
asg10
(lp4015
sg12
I568
sg13
g14
sg15
I2
sg16
I1
sg17
(lp4016
sg19
(lp4017
I13
aI0
asg21
F0.48602700233459473
sg22
(lp4018
g1347
ag1325
asg26
I1
sg27
I1
sg28
I1
sg29
F1756.0073170661926
sg30
(lp4019
F0.48099999999999998
aF0.85099999999999998
asg32
g1301
sg34
I01
sa(dp4020
g8
(lp4021
I1
aI1
asg10
(lp4022
sg12
I569
sg13
g14
sg15
I2
sg16
I1
sg17
(lp4023
sg19
(lp4024
I10
aI3
asg21
F0.77974104881286621
sg22
(lp4025
g1369
ag1299
asg26
I1
sg27
I1
sg28
I1
sg29
F1759.0779049396515
sg30
(lp4026
F0.38400000000000001
aF0.88900000000000001
asg32
g1301
sg34
I01
sa(dp4027
g8
(lp4028
I0
aI0
asg10
(lp4029
sg12
I570
sg13
g14
sg15
I2
sg16
I0
sg17
(lp4030
sg19
(lp4031
I0
aI14
asg21
F0.35369491577148438
sg22
(lp4032
g1325
ag1316
asg26
I1
sg27
I0
sg28
I1
sg29
F1762.1472001075745
sg30
(lp4033
F0.85099999999999998
aF0.57499999999999996
asg32
g1301
sg34
I00
sa(dp4034
g8
(lp4035
I1
aI1
asg10
(lp4036
sg12
I571
sg13
g14
sg15
I2
sg16
I1
sg17
(lp4037
sg19
(lp4038
I3
aI13
asg21
F0.81645679473876953
sg22
(lp4039
g1299
ag1347
asg26
I1
sg27
I0
sg28
I1
sg29
F1765.2169969081879
sg30
(lp4040
F0.88900000000000001
aF0.48099999999999998
asg32
g1301
sg34
I00
sa(dp4041
g8
(lp4042
I1
aI0
asg10
(lp4043
sg12
I572
sg13
g14
sg15
I2
sg16
I1
sg17
(lp4044
sg19
(lp4045
I4
aI10
asg21
F0.77265501022338867
sg22
(lp4046
g1317
ag1369
asg26
I1
sg27
I0
sg28
I0
sg29
F1768.287584066391
sg30
(lp4047
F0.753
aF0.38400000000000001
asg32
g1301
sg34
I01
sa(dp4048
g8
(lp4049
I0
aI0
asg10
(lp4050
sg12
I573
sg13
g14
sg15
I2
sg16
I0
sg17
(lp4051
sg19
(lp4052
I0
aI9
asg21
F0.8078460693359375
sg22
(lp4053
g1325
ag1419
asg26
I1
sg27
I0
sg28
I0
sg29
F1771.3571259975433
sg30
(lp4054
F0.85099999999999998
aF0.104
asg32
g1301
sg34
I01
sa(dp4055
g8
(lp4056
I0
aI1
asg10
(lp4057
sg12
I574
sg13
g14
sg15
I2
sg16
I0
sg17
(lp4058
sg19
(lp4059
I4
aI5
asg21
F0.56085085868835449
sg22
(lp4060
g1317
ag1308
asg26
I1
sg27
I0
sg28
I0
sg29
F1774.4271950721741
sg30
(lp4061
F0.753
aF0.20999999999999999
asg32
g1301
sg34
I01
sa(dp4062
g8
(lp4063
I1
aI0
asg10
(lp4064
sg12
I575
sg13
g14
sg15
I2
sg16
I0
sg17
(lp4065
sg19
(lp4066
I0
aI9
asg21
F0.52903389930725098
sg22
(lp4067
g1325
ag1419
asg26
I1
sg27
I0
sg28
I1
sg29
F1777.4970979690552
sg30
(lp4068
F0.85099999999999998
aF0.104
asg32
g1301
sg34
I00
sa(dp4069
g8
(lp4070
I1
aI1
asg10
(lp4071
sg12
I576
sg13
g14
sg15
I2
sg16
I1
sg17
(lp4072
sg19
(lp4073
I10
aI3
asg21
F0.51872801780700684
sg22
(lp4074
g1369
ag1299
asg26
I1
sg27
I1
sg28
I0
sg29
F1780.5675981044769
sg30
(lp4075
F0.38400000000000001
aF0.88900000000000001
asg32
g1301
sg34
I00
sa(dp4076
g8
(lp4077
I0
aI1
asg10
(lp4078
sg12
I577
sg13
g14
sg15
I2
sg16
I0
sg17
(lp4079
sg19
(lp4080
I9
aI10
asg21
F0.49796104431152344
sg22
(lp4081
g1419
ag1369
asg26
I1
sg27
I1
sg28
I0
sg29
F1783.6374049186707
sg30
(lp4082
F0.104
aF0.38400000000000001
asg32
g1301
sg34
I00
sa(dp4083
g8
(lp4084
I1
aI0
asg10
(lp4085
sg12
I578
sg13
g14
sg15
I2
sg16
I1
sg17
(lp4086
sg19
(lp4087
I3
aI9
asg21
F0.55530786514282227
sg22
(lp4088
g1299
ag1419
asg26
I1
sg27
I0
sg28
I0
sg29
F1786.7072961330414
sg30
(lp4089
F0.88900000000000001
aF0.104
asg32
g1301
sg34
I01
sa(dp4090
g8
(lp4091
I0
aI0
asg10
(lp4092
sg12
I579
sg13
g14
sg15
I2
sg16
I0
sg17
(lp4093
sg19
(lp4094
I8
aI9
asg21
F0.9503319263458252
sg22
(lp4095
g1298
ag1419
asg26
I1
sg27
I1
sg28
I1
sg29
F1789.7777140140533
sg30
(lp4096
F0.065000000000000002
aF0.104
asg32
g1301
sg34
I01
sa(dp4097
g8
(lp4098
I0
aI0
asg10
(lp4099
sg12
I580
sg13
g14
sg15
I2
sg16
I0
sg17
(lp4100
sg19
(lp4101
I3
aI8
asg21
F0.67044186592102051
sg22
(lp4102
g1299
ag1298
asg26
I1
sg27
I0
sg28
I1
sg29
F1792.847048997879
sg30
(lp4103
F0.88900000000000001
aF0.065000000000000002
asg32
g1301
sg34
I00
sa(dp4104
g8
(lp4105
I1
aI0
asg10
(lp4106
sg12
I581
sg13
g14
sg15
I2
sg16
I1
sg17
(lp4107
sg19
(lp4108
I5
aI8
asg21
F0.75029301643371582
sg22
(lp4109
g1308
ag1298
asg26
I1
sg27
I0
sg28
I0
sg29
F1795.9171419143677
sg30
(lp4110
F0.20999999999999999
aF0.065000000000000002
asg32
g1301
sg34
I01
sa(dp4111
g8
(lp4112
I1
aI1
asg10
(lp4113
sg12
I582
sg13
g14
sg15
I2
sg16
I1
sg17
(lp4114
sg19
(lp4115
I13
aI0
asg21
F0.60549378395080566
sg22
(lp4116
g1347
ag1325
asg26
I1
sg27
I1
sg28
I0
sg29
F1798.9869999885559
sg30
(lp4117
F0.48099999999999998
aF0.85099999999999998
asg32
g1301
sg34
I00
sa(dp4118
g8
(lp4119
I1
aI0
asg10
(lp4120
sg12
I583
sg13
g14
sg15
I2
sg16
I1
sg17
(lp4121
sg19
(lp4122
I3
aI8
asg21
F0.5506598949432373
sg22
(lp4123
g1299
ag1298
asg26
I1
sg27
I0
sg28
I0
sg29
F1802.0571749210358
sg30
(lp4124
F0.88900000000000001
aF0.065000000000000002
asg32
g1301
sg34
I01
sa(dp4125
g8
(lp4126
I1
aI1
asg10
(lp4127
sg12
I584
sg13
g14
sg15
I2
sg16
I1
sg17
(lp4128
sg19
(lp4129
I14
aI3
asg21
F0.47281002998352051
sg22
(lp4130
g1316
ag1299
asg26
I1
sg27
I1
sg28
I1
sg29
F1805.1269080638885
sg30
(lp4131
F0.57499999999999996
aF0.88900000000000001
asg32
g1301
sg34
I01
sa(dp4132
g8
(lp4133
I1
aI1
asg10
(lp4134
sg12
I585
sg13
g14
sg15
I2
sg16
I1
sg17
(lp4135
sg19
(lp4136
I14
aI10
asg21
F0.37310910224914551
sg22
(lp4137
g1316
ag1369
asg26
I1
sg27
I0
sg28
I0
sg29
F1808.1968519687653
sg30
(lp4138
F0.57499999999999996
aF0.38400000000000001
asg32
g1301
sg34
I01
sa(dp4139
g8
(lp4140
I0
aI1
asg10
(lp4141
sg12
I586
sg13
g14
sg15
I2
sg16
I1
sg17
(lp4142
sg19
(lp4143
I13
aI8
asg21
F0.59963011741638184
sg22
(lp4144
g1347
ag1298
asg26
I1
sg27
I0
sg28
I1
sg29
F1811.2670819759369
sg30
(lp4145
F0.48099999999999998
aF0.065000000000000002
asg32
g1301
sg34
I00
sa(dp4146
g8
(lp4147
I1
aI0
asg10
(lp4148
sg12
I587
sg13
g14
sg15
I2
sg16
I1
sg17
(lp4149
sg19
(lp4150
I0
aI9
asg21
F0.93814706802368164
sg22
(lp4151
g1325
ag1419
asg26
I1
sg27
I0
sg28
I0
sg29
F1814.3367619514465
sg30
(lp4152
F0.85099999999999998
aF0.104
asg32
g1301
sg34
I01
sa(dp4153
g8
(lp4154
I0
aI1
asg10
(lp4155
sg12
I588
sg13
g14
sg15
I2
sg16
I1
sg17
(lp4156
sg19
(lp4157
I3
aI0
asg21
F0.56870102882385254
sg22
(lp4158
g1299
ag1325
asg26
I1
sg27
I0
sg28
I1
sg29
F1817.4067640304565
sg30
(lp4159
F0.88900000000000001
aF0.85099999999999998
asg32
g1301
sg34
I00
sa(dp4160
g8
(lp4161
I0
aI1
asg10
(lp4162
sg12
I589
sg13
g14
sg15
I2
sg16
I0
sg17
(lp4163
sg19
(lp4164
I8
aI13
asg21
F1.0647759437561035
sg22
(lp4165
g1298
ag1347
asg26
I1
sg27
I1
sg28
I0
sg29
F1820.4776220321655
sg30
(lp4166
F0.065000000000000002
aF0.48099999999999998
asg32
g1301
sg34
I00
sa(dp4167
g8
(lp4168
I1
aI1
asg10
(lp4169
sg12
I590
sg13
g14
sg15
I2
sg16
I1
sg17
(lp4170
sg19
(lp4171
I4
aI3
asg21
F0.6152958869934082
sg22
(lp4172
g1317
ag1299
asg26
I1
sg27
I1
sg28
I0
sg29
F1823.5468049049377
sg30
(lp4173
F0.753
aF0.88900000000000001
asg32
g1301
sg34
I00
sa(dp4174
g8
(lp4175
I1
aI1
asg10
(lp4176
sg12
I591
sg13
g14
sg15
I2
sg16
I1
sg17
(lp4177
sg19
(lp4178
I4
aI3
asg21
F1.100830078125
sg22
(lp4179
g1317
ag1299
asg26
I1
sg27
I1
sg28
I0
sg29
F1826.6168689727783
sg30
(lp4180
F0.753
aF0.88900000000000001
asg32
g1301
sg34
I00
sa(dp4181
g8
(lp4182
I0
aI1
asg10
(lp4183
sg12
I592
sg13
g14
sg15
I2
sg16
I0
sg17
(lp4184
sg19
(lp4185
I8
aI3
asg21
F0.98982906341552734
sg22
(lp4186
g1298
ag1299
asg26
I1
sg27
I1
sg28
I0
sg29
F1829.6873009204865
sg30
(lp4187
F0.065000000000000002
aF0.88900000000000001
asg32
g1301
sg34
I00
sa(dp4188
g8
(lp4189
I0
aI1
asg10
(lp4190
sg12
I593
sg13
g14
sg15
I2
sg16
I1
sg17
(lp4191
sg19
(lp4192
I13
aI3
asg21
F0.55205416679382324
sg22
(lp4193
g1347
ag1299
asg26
I1
sg27
I1
sg28
I1
sg29
F1832.7568619251251
sg30
(lp4194
F0.48099999999999998
aF0.88900000000000001
asg32
g1301
sg34
I01
sa(dp4195
g8
(lp4196
I0
aI1
asg10
(lp4197
sg12
I594
sg13
g14
sg15
I2
sg16
I1
sg17
(lp4198
sg19
(lp4199
I14
aI3
asg21
F0.76740002632141113
sg22
(lp4200
g1316
ag1299
asg26
I1
sg27
I1
sg28
I1
sg29
F1835.8269839286804
sg30
(lp4201
F0.57499999999999996
aF0.88900000000000001
asg32
g1301
sg34
I01
sa(dp4202
g8
(lp4203
I0
aI1
asg10
(lp4204
sg12
I595
sg13
g14
sg15
I2
sg16
I1
sg17
(lp4205
sg19
(lp4206
I8
aI0
asg21
F0.88107180595397949
sg22
(lp4207
g1298
ag1325
asg26
I1
sg27
I1
sg28
I1
sg29
F1838.8971929550171
sg30
(lp4208
F0.065000000000000002
aF0.85099999999999998
asg32
g1301
sg34
I01
sa(dp4209
g8
(lp4210
I0
aI1
asg10
(lp4211
sg12
I596
sg13
g14
sg15
I2
sg16
I1
sg17
(lp4212
sg19
(lp4213
I14
aI10
asg21
F0.88263511657714844
sg22
(lp4214
g1316
ag1369
asg26
I1
sg27
I0
sg28
I1
sg29
F1841.9665861129761
sg30
(lp4215
F0.57499999999999996
aF0.38400000000000001
asg32
g1301
sg34
I00
sa(dp4216
g8
(lp4217
I1
aI1
asg10
(lp4218
sg12
I597
sg13
g14
sg15
I2
sg16
I1
sg17
(lp4219
sg19
(lp4220
I5
aI3
asg21
F1.041301965713501
sg22
(lp4221
g1308
ag1299
asg26
I1
sg27
I1
sg28
I1
sg29
F1845.0367889404297
sg30
(lp4222
F0.20999999999999999
aF0.88900000000000001
asg32
g1301
sg34
I01
sa(dp4223
g8
(lp4224
I1
aI1
asg10
(lp4225
sg12
I598
sg13
g14
sg15
I2
sg16
I1
sg17
(lp4226
sg19
(lp4227
I0
aI3
asg21
F0.6715700626373291
sg22
(lp4228
g1325
ag1299
asg26
I1
sg27
I1
sg28
I1
sg29
F1848.1072931289673
sg30
(lp4229
F0.85099999999999998
aF0.88900000000000001
asg32
g1301
sg34
I01
sa(dp4230
g8
(lp4231
I0
aI1
asg10
(lp4232
sg12
I599
sg13
g14
sg15
I2
sg16
I0
sg17
(lp4233
sg19
(lp4234
I14
aI10
asg21
F0.69474506378173828
sg22
(lp4235
g1316
ag1369
asg26
I1
sg27
I0
sg28
I0
sg29
F1851.1768980026245
sg30
(lp4236
F0.57499999999999996
aF0.38400000000000001
asg32
g1301
sg34
I01
sa(dp4237
g8
(lp4238
I0
aI1
asg10
(lp4239
sg12
I600
sg13
g14
sg15
I2
sg16
I0
sg17
(lp4240
sg19
(lp4241
I5
aI0
asg21
F1.3376250267028809
sg22
(lp4242
g1308
ag1325
asg26
I1
sg27
I1
sg28
I0
sg29
F1854.2469189167023
sg30
(lp4243
F0.20999999999999999
aF0.85099999999999998
asg32
g1301
sg34
I00
sa(dp4244
g8
(lp4245
I0
aI1
asg10
(lp4246
sg12
I601
sg13
g14
sg15
I2
sg16
I1
sg17
(lp4247
sg19
(lp4248
I10
aI0
asg21
F0.67521405220031738
sg22
(lp4249
g1369
ag1325
asg26
I1
sg27
I1
sg28
I1
sg29
F1857.3164799213409
sg30
(lp4250
F0.38400000000000001
aF0.85099999999999998
asg32
g1301
sg34
I01
sa(dp4251
g8
(lp4252
I0
aI1
asg10
(lp4253
sg12
I602
sg13
g14
sg15
I2
sg16
I0
sg17
(lp4254
sg19
(lp4255
I9
aI0
asg21
F0.2485651969909668
sg22
(lp4256
g1419
ag1325
asg26
I1
sg27
I1
sg28
I0
sg29
F1860.3868429660797
sg30
(lp4257
F0.104
aF0.85099999999999998
asg32
g1301
sg34
I00
sa(dp4258
g8
(lp4259
I0
aI0
asg10
(lp4260
sg12
I603
sg13
g14
sg15
I2
sg16
I0
sg17
(lp4261
sg19
(lp4262
I14
aI5
asg21
F0.53149914741516113
sg22
(lp4263
g1316
ag1308
asg26
I1
sg27
I0
sg28
I0
sg29
F1863.4564909934998
sg30
(lp4264
F0.57499999999999996
aF0.20999999999999999
asg32
g1301
sg34
I01
sa(dp4265
g8
(lp4266
I1
aI0
asg10
(lp4267
sg12
I604
sg13
g14
sg15
I2
sg16
I0
sg17
(lp4268
sg19
(lp4269
I3
aI4
asg21
F0.56682419776916504
sg22
(lp4270
g1299
ag1317
asg26
I1
sg27
I0
sg28
I1
sg29
F1866.5265870094299
sg30
(lp4271
F0.88900000000000001
aF0.753
asg32
g1301
sg34
I00
sa(dp4272
g8
(lp4273
I1
aI1
asg10
(lp4274
sg12
I605
sg13
g14
sg15
I2
sg16
I1
sg17
(lp4275
sg19
(lp4276
I4
aI0
asg21
F0.69169092178344727
sg22
(lp4277
g1317
ag1325
asg26
I1
sg27
I1
sg28
I0
sg29
F1869.5973179340363
sg30
(lp4278
F0.753
aF0.85099999999999998
asg32
g1301
sg34
I00
sa(dp4279
g8
(lp4280
I0
aI1
asg10
(lp4281
sg12
I606
sg13
g14
sg15
I2
sg16
I1
sg17
(lp4282
sg19
(lp4283
I13
aI0
asg21
F0.65938091278076172
sg22
(lp4284
g1347
ag1325
asg26
I1
sg27
I1
sg28
I1
sg29
F1872.666167974472
sg30
(lp4285
F0.48099999999999998
aF0.85099999999999998
asg32
g1301
sg34
I01
sa(dp4286
g8
(lp4287
I0
aI1
asg10
(lp4288
sg12
I607
sg13
g14
sg15
I2
sg16
I1
sg17
(lp4289
sg19
(lp4290
I10
aI14
asg21
F0.5815269947052002
sg22
(lp4291
g1369
ag1316
asg26
I1
sg27
I1
sg28
I1
sg29
F1875.7365601062775
sg30
(lp4292
F0.38400000000000001
aF0.57499999999999996
asg32
g1301
sg34
I01
sa(dp4293
g8
(lp4294
I1
aI0
asg10
(lp4295
sg12
I608
sg13
g14
sg15
I2
sg16
I0
sg17
(lp4296
sg19
(lp4297
I13
aI10
asg21
F0.63925480842590332
sg22
(lp4298
g1347
ag1369
asg26
I1
sg27
I0
sg28
I1
sg29
F1878.8068900108337
sg30
(lp4299
F0.48099999999999998
aF0.38400000000000001
asg32
g1301
sg34
I00
sa(dp4300
g8
(lp4301
I1
aI0
asg10
(lp4302
sg12
I609
sg13
g14
sg15
I2
sg16
I0
sg17
(lp4303
sg19
(lp4304
I0
aI8
asg21
F0.56186795234680176
sg22
(lp4305
g1325
ag1298
asg26
I1
sg27
I0
sg28
I1
sg29
F1881.8762359619141
sg30
(lp4306
F0.85099999999999998
aF0.065000000000000002
asg32
g1301
sg34
I00
sa(dp4307
g8
(lp4308
I0
aI0
asg10
(lp4309
sg12
I610
sg13
g14
sg15
I2
sg16
I0
sg17
(lp4310
sg19
(lp4311
I5
aI9
asg21
F0.39466094970703125
sg22
(lp4312
g1308
ag1419
asg26
I1
sg27
I0
sg28
I1
sg29
F1884.9463200569153
sg30
(lp4313
F0.20999999999999999
aF0.104
asg32
g1301
sg34
I00
sa(dp4314
g8
(lp4315
I1
aI0
asg10
(lp4316
sg12
I611
sg13
g14
sg15
I2
sg16
I1
sg17
(lp4317
sg19
(lp4318
I0
aI5
asg21
F0.51959800720214844
sg22
(lp4319
g1325
ag1308
asg26
I1
sg27
I0
sg28
I0
sg29
F1888.0166020393372
sg30
(lp4320
F0.85099999999999998
aF0.20999999999999999
asg32
g1301
sg34
I01
sa(dp4321
g8
(lp4322
I0
aI1
asg10
(lp4323
sg12
I612
sg13
g14
sg15
I2
sg16
I0
sg17
(lp4324
sg19
(lp4325
I10
aI4
asg21
F0.46409320831298828
sg22
(lp4326
g1369
ag1317
asg26
I1
sg27
I1
sg28
I0
sg29
F1891.0866069793701
sg30
(lp4327
F0.38400000000000001
aF0.753
asg32
g1301
sg34
I00
sasS'timestamp'
p4328
S'2017-12-21_15-14-08'
p4329
sS'taskdata'
p4330
(dp4331
g22
(lp4332
g1325
ag64
ag24
ag1299
ag1317
ag1308
ag41
ag56
ag1298
ag1419
ag1369
ag25
ag79
ag1347
ag1316
asg30
(dp4333
I0
F0.85099999999999998
sI1
F0.90000000000000002
sI2
F0.88900000000000001
sI3
F0.88900000000000001
sI4
F0.753
sI5
F0.20999999999999999
sI6
F0.060999999999999999
sI7
F0.050000000000000003
sI8
F0.065000000000000002
sI9
F0.104
sI10
F0.38400000000000001
sI11
F0.48099999999999998
sI12
F0.48099999999999998
sI13
F0.48099999999999998
sI14
F0.57499999999999996
ssS'action_keys'
p4334
(lp4335
S'left'
p4336
aS'right'
p4337
ass.